Archive member included because of file (symbol)

c:/isis/application/toolchain/bin/../lib/gcc/arm-none-eabi/4.7.4/../../../../arm-none-eabi/lib\libc_s.a(lib_a-vfprintf_float.o)
                              (_printf_float)
c:/isis/application/toolchain/bin/../lib/gcc/arm-none-eabi/4.7.4/../../../../arm-none-eabi/lib\libc_s.a(lib_a-vfprintf_i.o)
                              c:/isis/application/toolchain/bin/../lib/gcc/arm-none-eabi/4.7.4/../../../../arm-none-eabi/lib\libc_s.a(lib_a-vfprintf_float.o) (_printf_common)
c:/isis/application/toolchain/bin/../lib/gcc/arm-none-eabi/4.7.4/../../../../arm-none-eabi/lib\libc_s.a(lib_a-vfscanf_float.o)
                              (_scanf_float)
c:/isis/application/toolchain/bin/../lib/gcc/arm-none-eabi/4.7.4/../../../../arm-none-eabi/lib\libc_s.a(lib_a-dtoa.o)
                              c:/isis/application/toolchain/bin/../lib/gcc/arm-none-eabi/4.7.4/../../../../arm-none-eabi/lib\libc_s.a(lib_a-vfprintf_float.o) (_dtoa_r)
c:/isis/application/toolchain/bin/../lib/gcc/arm-none-eabi/4.7.4/../../../../arm-none-eabi/lib\libc_s.a(lib_a-locale.o)
                              c:/isis/application/toolchain/bin/../lib/gcc/arm-none-eabi/4.7.4/../../../../arm-none-eabi/lib\libc_s.a(lib_a-vfprintf_float.o) (_localeconv_r)
c:/isis/application/toolchain/bin/../lib/gcc/arm-none-eabi/4.7.4/../../../../arm-none-eabi/lib\libc_s.a(lib_a-malloc.o)
                              c:/isis/application/toolchain/bin/../lib/gcc/arm-none-eabi/4.7.4/../../../../arm-none-eabi/lib\libc_s.a(lib_a-dtoa.o) (malloc)
c:/isis/application/toolchain/bin/../lib/gcc/arm-none-eabi/4.7.4/../../../../arm-none-eabi/lib\libc_s.a(lib_a-mallocr.o)
                              c:/isis/application/toolchain/bin/../lib/gcc/arm-none-eabi/4.7.4/../../../../arm-none-eabi/lib\libc_s.a(lib_a-malloc.o) (_malloc_r)
c:/isis/application/toolchain/bin/../lib/gcc/arm-none-eabi/4.7.4/../../../../arm-none-eabi/lib\libc_s.a(lib_a-memcpy.o)
                              c:/isis/application/toolchain/bin/../lib/gcc/arm-none-eabi/4.7.4/../../../../arm-none-eabi/lib\libc_s.a(lib_a-dtoa.o) (memcpy)
c:/isis/application/toolchain/bin/../lib/gcc/arm-none-eabi/4.7.4/../../../../arm-none-eabi/lib\libc_s.a(lib_a-mprec.o)
                              c:/isis/application/toolchain/bin/../lib/gcc/arm-none-eabi/4.7.4/../../../../arm-none-eabi/lib\libc_s.a(lib_a-dtoa.o) (_Balloc)
c:/isis/application/toolchain/bin/../lib/gcc/arm-none-eabi/4.7.4/../../../../arm-none-eabi/lib\libc_s.a(lib_a-s_fpclassify.o)
                              c:/isis/application/toolchain/bin/../lib/gcc/arm-none-eabi/4.7.4/../../../../arm-none-eabi/lib\libc_s.a(lib_a-vfprintf_float.o) (__fpclassifyd)
c:/isis/application/toolchain/bin/../lib/gcc/arm-none-eabi/4.7.4/../../../../arm-none-eabi/lib\libc_s.a(lib_a-sbrkr.o)
                              c:/isis/application/toolchain/bin/../lib/gcc/arm-none-eabi/4.7.4/../../../../arm-none-eabi/lib\libc_s.a(lib_a-mallocr.o) (_sbrk_r)
c:/isis/application/toolchain/bin/../lib/gcc/arm-none-eabi/4.7.4/../../../../arm-none-eabi/lib\libc_s.a(lib_a-sf_nan.o)
                              c:/isis/application/toolchain/bin/../lib/gcc/arm-none-eabi/4.7.4/../../../../arm-none-eabi/lib\libc_s.a(lib_a-vfscanf_float.o) (nanf)
c:/isis/application/toolchain/bin/../lib/gcc/arm-none-eabi/4.7.4/../../../../arm-none-eabi/lib\libc_s.a(lib_a-sprintf.o)
                              c:/isis/application/toolchain/bin/../lib/gcc/arm-none-eabi/4.7.4/../../../../arm-none-eabi/lib\libc_s.a(lib_a-vfscanf_float.o) (sprintf)
c:/isis/application/toolchain/bin/../lib/gcc/arm-none-eabi/4.7.4/../../../../arm-none-eabi/lib\libc_s.a(lib_a-strcmp.o)
                              c:/isis/application/toolchain/bin/../lib/gcc/arm-none-eabi/4.7.4/../../../../arm-none-eabi/lib\libc_s.a(lib_a-locale.o) (strcmp)
c:/isis/application/toolchain/bin/../lib/gcc/arm-none-eabi/4.7.4/../../../../arm-none-eabi/lib\libc_s.a(lib_a-strlen.o)
                              c:/isis/application/toolchain/bin/../lib/gcc/arm-none-eabi/4.7.4/../../../../arm-none-eabi/lib\libc_s.a(lib_a-vfprintf_float.o) (strlen)
c:/isis/application/toolchain/bin/../lib/gcc/arm-none-eabi/4.7.4/../../../../arm-none-eabi/lib\libc_s.a(lib_a-strtod.o)
                              c:/isis/application/toolchain/bin/../lib/gcc/arm-none-eabi/4.7.4/../../../../arm-none-eabi/lib\libc_s.a(lib_a-vfscanf_float.o) (_strtod_r)
c:/isis/application/toolchain/bin/../lib/gcc/arm-none-eabi/4.7.4/../../../../arm-none-eabi/lib\libc_s.a(lib_a-strtol.o)
                              c:/isis/application/toolchain/bin/../lib/gcc/arm-none-eabi/4.7.4/../../../../arm-none-eabi/lib\libc_s.a(lib_a-vfscanf_float.o) (_strtol_r)
c:/isis/application/toolchain/bin/../lib/gcc/arm-none-eabi/4.7.4/../../../../arm-none-eabi/lib\libc_s.a(lib_a-svfprintf.o)
                              c:/isis/application/toolchain/bin/../lib/gcc/arm-none-eabi/4.7.4/../../../../arm-none-eabi/lib\libc_s.a(lib_a-sprintf.o) (_svfprintf_r)
c:/isis/application/toolchain/bin/../lib/gcc/arm-none-eabi/4.7.4/../../../../arm-none-eabi/lib\libc_s.a(lib_a-callocr.o)
                              c:/isis/application/toolchain/bin/../lib/gcc/arm-none-eabi/4.7.4/../../../../arm-none-eabi/lib\libc_s.a(lib_a-mprec.o) (_calloc_r)
c:/isis/application/toolchain/bin/../lib/gcc/arm-none-eabi/4.7.4/../../../../arm-none-eabi/lib\libc_s.a(lib_a-ctype_.o)
                              c:/isis/application/toolchain/bin/../lib/gcc/arm-none-eabi/4.7.4/../../../../arm-none-eabi/lib\libc_s.a(lib_a-strtol.o) (__ctype_ptr__)
c:/isis/application/toolchain/bin/../lib/gcc/arm-none-eabi/4.7.4/../../../../arm-none-eabi/lib\libc_s.a(lib_a-freer.o)
                              c:/isis/application/toolchain/bin/../lib/gcc/arm-none-eabi/4.7.4/../../../../arm-none-eabi/lib\libc_s.a(lib_a-malloc.o) (_free_r)
c:/isis/application/toolchain/bin/../lib/gcc/arm-none-eabi/4.7.4/../../../../arm-none-eabi/lib\libc_s.a(lib_a-gdtoa-gethex.o)
                              c:/isis/application/toolchain/bin/../lib/gcc/arm-none-eabi/4.7.4/../../../../arm-none-eabi/lib\libc_s.a(lib_a-strtod.o) (__gethex)
c:/isis/application/toolchain/bin/../lib/gcc/arm-none-eabi/4.7.4/../../../../arm-none-eabi/lib\libc_s.a(lib_a-gdtoa-hexnan.o)
                              c:/isis/application/toolchain/bin/../lib/gcc/arm-none-eabi/4.7.4/../../../../arm-none-eabi/lib\libc_s.a(lib_a-strtod.o) (__hexnan)
c:/isis/application/toolchain/bin/../lib/gcc/arm-none-eabi/4.7.4/../../../../arm-none-eabi/lib\libc_s.a(lib_a-impure.o)
                              c:/isis/application/toolchain/bin/../lib/gcc/arm-none-eabi/4.7.4/../../../../arm-none-eabi/lib\libc_s.a(lib_a-locale.o) (_impure_ptr)
c:/isis/application/toolchain/bin/../lib/gcc/arm-none-eabi/4.7.4/../../../../arm-none-eabi/lib\libc_s.a(lib_a-memchr.o)
                              c:/isis/application/toolchain/bin/../lib/gcc/arm-none-eabi/4.7.4/../../../../arm-none-eabi/lib\libc_s.a(lib_a-svfprintf.o) (memchr)
c:/isis/application/toolchain/bin/../lib/gcc/arm-none-eabi/4.7.4/../../../../arm-none-eabi/lib\libc_s.a(lib_a-memmove.o)
                              c:/isis/application/toolchain/bin/../lib/gcc/arm-none-eabi/4.7.4/../../../../arm-none-eabi/lib\libc_s.a(lib_a-svfprintf.o) (memmove)
c:/isis/application/toolchain/bin/../lib/gcc/arm-none-eabi/4.7.4/../../../../arm-none-eabi/lib\libc_s.a(lib_a-memset.o)
                              c:/isis/application/toolchain/bin/../lib/gcc/arm-none-eabi/4.7.4/../../../../arm-none-eabi/lib\libc_s.a(lib_a-callocr.o) (memset)
c:/isis/application/toolchain/bin/../lib/gcc/arm-none-eabi/4.7.4/../../../../arm-none-eabi/lib\libc_s.a(lib_a-reallocr.o)
                              c:/isis/application/toolchain/bin/../lib/gcc/arm-none-eabi/4.7.4/../../../../arm-none-eabi/lib\libc_s.a(lib_a-svfprintf.o) (_realloc_r)
c:/isis/application/toolchain/bin/../lib/gcc/arm-none-eabi/4.7.4/../../../../arm-none-eabi/lib\libc_s.a(lib_a-reent.o)
                              c:/isis/application/toolchain/bin/../lib/gcc/arm-none-eabi/4.7.4/../../../../arm-none-eabi/lib\libc_s.a(lib_a-sbrkr.o) (errno)
c:/isis/application/toolchain/bin/../lib/gcc/arm-none-eabi/4.7.4/../../../../arm-none-eabi/lib\libc_s.a(lib_a-strncmp.o)
                              c:/isis/application/toolchain/bin/../lib/gcc/arm-none-eabi/4.7.4/../../../../arm-none-eabi/lib\libc_s.a(lib_a-strtod.o) (strncmp)
c:/isis/application/toolchain/bin/../lib/gcc/arm-none-eabi/4.7.4/../../../../arm-none-eabi/lib\libc_s.a(lib_a-msizer.o)
                              c:/isis/application/toolchain/bin/../lib/gcc/arm-none-eabi/4.7.4/../../../../arm-none-eabi/lib\libc_s.a(lib_a-reallocr.o) (_malloc_usable_size_r)
C:/Users/ground/Documents/GitHub/tevel2/GlobusSatProject/..//hal/hal/lib\libHALD.a(SPI.o)
                              ./src/InitSystem.o (SPI_start)
C:/Users/ground/Documents/GitHub/tevel2/GlobusSatProject/..//hal/hal/lib\libHALD.a(I2C.o)
                              ./src/SubSystemModules/Payload/payload_drivers.o (I2C_write)
C:/Users/ground/Documents/GitHub/tevel2/GlobusSatProject/..//hal/hal/lib\libHALD.a(FRAM.o)
                              ./src/SubSystemModules/Communication/SubsystemCommands/Maintanence_Commands.o (FRAM_start)
C:/Users/ground/Documents/GitHub/tevel2/GlobusSatProject/..//hal/hal/lib\libHALD.a(Time.o)
                              ./src/InitSystem.o (Time_start)
C:/Users/ground/Documents/GitHub/tevel2/GlobusSatProject/..//hal/hal/lib\libHALD.a(WatchDogTimerNoOS.o)
                              ./src/main.o (WDT_start)
C:/Users/ground/Documents/GitHub/tevel2/GlobusSatProject/..//hal/hal/lib\libHALD.a(RTT.o)
                              C:/Users/ground/Documents/GitHub/tevel2/GlobusSatProject/..//hal/hal/lib\libHALD.a(Time.o) (RTT_start)
C:/Users/ground/Documents/GitHub/tevel2/GlobusSatProject/..//hal/hal/lib\libHALD.a(RTC.o)
                              C:/Users/ground/Documents/GitHub/tevel2/GlobusSatProject/..//hal/hal/lib\libHALD.a(Time.o) (RTC_getTime)
C:/Users/ground/Documents/GitHub/tevel2/GlobusSatProject/..//hal/hal/lib\libHALD.a(WatchDogTimerOS.o)
                              ./src/TestingDemos/MainTest.o (WDT_startWatchdogKickTask)
C:/Users/ground/Documents/GitHub/tevel2/GlobusSatProject/..//hal/hal/lib\libHALD.a(util.o)
                              ./src/TestingDemos/CommandsTestingDemo.o (UTIL_DbguGetIntegerMinMax)
C:/Users/ground/Documents/GitHub/tevel2/GlobusSatProject/..//hal/hal/lib\libHALD.a(LED.o)
                              C:/Users/ground/Documents/GitHub/tevel2/GlobusSatProject/..//hal/hal/lib\libHALD.a(WatchDogTimerOS.o) (LED_toggle)
C:/Users/ground/Documents/GitHub/tevel2/GlobusSatProject/..//hal/hcc/lib\libHCCD.a(fat_m.o)
                              ./src/TLM_management.o (fm_initvolume)
C:/Users/ground/Documents/GitHub/tevel2/GlobusSatProject/..//hal/hcc/lib\libHCCD.a(fat.o)
                              C:/Users/ground/Documents/GitHub/tevel2/GlobusSatProject/..//hal/hcc/lib\libHCCD.a(fat_m.o) (fn_getdcwd)
C:/Users/ground/Documents/GitHub/tevel2/GlobusSatProject/..//hal/hcc/lib\libHCCD.a(fat_common.o)
                              C:/Users/ground/Documents/GitHub/tevel2/GlobusSatProject/..//hal/hcc/lib\libHCCD.a(fat.o) (p_filesystem)
C:/Users/ground/Documents/GitHub/tevel2/GlobusSatProject/..//hal/hcc/lib\libHCCD.a(safefat.o)
                              C:/Users/ground/Documents/GitHub/tevel2/GlobusSatProject/..//hal/hcc/lib\libHCCD.a(fat.o) (s_subdir)
C:/Users/ground/Documents/GitHub/tevel2/GlobusSatProject/..//hal/hcc/lib\libHCCD.a(atmel_mcipdc.o)
                              ./src/TLM_management.o (atmel_mcipdc_initfunc)
C:/Users/ground/Documents/GitHub/tevel2/GlobusSatProject/..//hal/hcc/lib\libHCCD.a(oalp_task.o)
                              C:/Users/ground/Documents/GitHub/tevel2/GlobusSatProject/..//hal/hcc/lib\libHCCD.a(fat_common.o) (oal_task_get_id)
C:/Users/ground/Documents/GitHub/tevel2/GlobusSatProject/..//hal/hcc/lib\libHCCD.a(oalp_mutex.o)
                              C:/Users/ground/Documents/GitHub/tevel2/GlobusSatProject/..//hal/hcc/lib\libHCCD.a(fat_common.o) (oal_mutex_create)
C:/Users/ground/Documents/GitHub/tevel2/GlobusSatProject/..//hal/hcc/lib\libHCCD.a(atmel_mcipdc_hw.o)
                              C:/Users/ground/Documents/GitHub/tevel2/GlobusSatProject/..//hal/hcc/lib\libHCCD.a(atmel_mcipdc.o) (mcipdc_hw_init)
C:/Users/ground/Documents/GitHub/tevel2/GlobusSatProject/..//hal/hcc/lib\libHCCD.a(psp_rand.o)
                              C:/Users/ground/Documents/GitHub/tevel2/GlobusSatProject/..//hal/hcc/lib\libHCCD.a(fat_common.o) (psp_getrand)
C:/Users/ground/Documents/GitHub/tevel2/GlobusSatProject/..//hal/hcc/lib\libHCCD.a(psp_rtc.o)
                              C:/Users/ground/Documents/GitHub/tevel2/GlobusSatProject/..//hal/hcc/lib\libHCCD.a(fat_common.o) (psp_getcurrenttimedate)
C:/Users/ground/Documents/GitHub/tevel2/GlobusSatProject/..//hal/hcc/lib\libHCCD.a(hcc_mem.o)
                              C:/Users/ground/Documents/GitHub/tevel2/GlobusSatProject/..//hal/hcc/lib\libHCCD.a(atmel_mcipdc.o) (hcc_mem_alloc)
C:/Users/ground/Documents/GitHub/tevel2/GlobusSatProject/..//hal/hcc/lib\libHCCD.a(psp_hcc_mem.o)
                              C:/Users/ground/Documents/GitHub/tevel2/GlobusSatProject/..//hal/hcc/lib\libHCCD.a(hcc_mem.o) (hcc_mem_buf_alloc)
C:/Users/ground/Documents/GitHub/tevel2/GlobusSatProject/..//satellite-subsystems/satellite-subsystems/lib\libSatelliteSubsystemsD.a(IsisSolarPanelv2.o)
                              ./src/InitSystem.o (IsisSolarPanelv2_initialize)
C:/Users/ground/Documents/GitHub/tevel2/GlobusSatProject/..//satellite-subsystems/satellite-subsystems/lib\libSatelliteSubsystemsD.a(isis_ants.o)
                              ./src/SubSystemModules/Communication/TRXVU.o (ISIS_ANTS_Init)
C:/Users/ground/Documents/GitHub/tevel2/GlobusSatProject/..//satellite-subsystems/satellite-subsystems/lib\libSatelliteSubsystemsD.a(isis_vu_e.o)
                              ./src/SubSystemModules/Communication/TRXVU.o (ISIS_VU_E_Init)
C:/Users/ground/Documents/GitHub/tevel2/GlobusSatProject/..//satellite-subsystems/satellite-subsystems/lib\libSatelliteSubsystemsD.a(isismepsv2_ivid5_piu.o)
                              ./src/SubSystemModules/PowerManagment/EPS.o (ISISMEPSV2_IVID5_PIU_Init)
C:/Users/ground/Documents/GitHub/tevel2/GlobusSatProject/..//hal/freertos/lib\libFreeRTOSD.a(queue.o)
                              ./src/SubSystemModules/Housekepping/Dump.o (xQueueGenericCreate)
C:/Users/ground/Documents/GitHub/tevel2/GlobusSatProject/..//hal/freertos/lib\libFreeRTOSD.a(list.o)
                              C:/Users/ground/Documents/GitHub/tevel2/GlobusSatProject/..//hal/freertos/lib\libFreeRTOSD.a(queue.o) (vListInitialise)
C:/Users/ground/Documents/GitHub/tevel2/GlobusSatProject/..//hal/freertos/lib\libFreeRTOSD.a(tasks.o)
                              ./src/SubSystemModules/Housekepping/Dump.o (xTaskGenericCreate)
C:/Users/ground/Documents/GitHub/tevel2/GlobusSatProject/..//hal/freertos/lib\libFreeRTOSD.a(timers.o)
                              C:/Users/ground/Documents/GitHub/tevel2/GlobusSatProject/..//hal/freertos/lib\libFreeRTOSD.a(tasks.o) (xTimerCreateTimerTask)
C:/Users/ground/Documents/GitHub/tevel2/GlobusSatProject/..//hal/freertos/lib\libFreeRTOSD.a(hooks.o)
                              C:/Users/ground/Documents/GitHub/tevel2/GlobusSatProject/..//hal/freertos/lib\libFreeRTOSD.a(tasks.o) (vApplicationStackOverflowHook)
C:/Users/ground/Documents/GitHub/tevel2/GlobusSatProject/..//hal/freertos/lib\libFreeRTOSD.a(standardMemMang.o)
                              C:/Users/ground/Documents/GitHub/tevel2/GlobusSatProject/..//hal/freertos/lib\libFreeRTOSD.a(queue.o) (pvPortMalloc)
C:/Users/ground/Documents/GitHub/tevel2/GlobusSatProject/..//hal/freertos/lib\libFreeRTOSD.a(port.o)
                              C:/Users/ground/Documents/GitHub/tevel2/GlobusSatProject/..//hal/freertos/lib\libFreeRTOSD.a(tasks.o) (pxPortInitialiseStack)
C:/Users/ground/Documents/GitHub/tevel2/GlobusSatProject/..//hal/at91/lib\libAt91D.a(syscalls.o)
                              ./src/main.o (exit)
C:/Users/ground/Documents/GitHub/tevel2/GlobusSatProject/..//hal/at91/lib\libAt91D.a(aic.o)
                              C:/Users/ground/Documents/GitHub/tevel2/GlobusSatProject/..//hal/hal/lib\libHALD.a(SPI.o) (AIC_ConfigureIT)
C:/Users/ground/Documents/GitHub/tevel2/GlobusSatProject/..//hal/at91/lib\libAt91D.a(cp15.o)
                              ./src/main.o (CP15_Enable_I_Cache)
C:/Users/ground/Documents/GitHub/tevel2/GlobusSatProject/..//hal/at91/lib\libAt91D.a(dbgu.o)
                              ./src/main.o (DBGU_Configure)
C:/Users/ground/Documents/GitHub/tevel2/GlobusSatProject/..//hal/at91/lib\libAt91D.a(pio.o)
                              ./src/main.o (PIO_Configure)
C:/Users/ground/Documents/GitHub/tevel2/GlobusSatProject/..//hal/at91/lib\libAt91D.a(pit.o)
                              C:/Users/ground/Documents/GitHub/tevel2/GlobusSatProject/..//hal/freertos/lib\libFreeRTOSD.a(port.o) (PIT_Init)
C:/Users/ground/Documents/GitHub/tevel2/GlobusSatProject/..//hal/at91/lib\libAt91D.a(pmc.o)
                              C:/Users/ground/Documents/GitHub/tevel2/GlobusSatProject/..//hal/hal/lib\libHALD.a(I2C.o) (PMC_EnablePeripheral)
C:/Users/ground/Documents/GitHub/tevel2/GlobusSatProject/..//hal/at91/lib\libAt91D.a(spi_at91.o)
                              C:/Users/ground/Documents/GitHub/tevel2/GlobusSatProject/..//hal/hal/lib\libHALD.a(SPI.o) (SPI_Enable)
C:/Users/ground/Documents/GitHub/tevel2/GlobusSatProject/..//hal/at91/lib\libAt91D.a(twi_at91.o)
                              C:/Users/ground/Documents/GitHub/tevel2/GlobusSatProject/..//hal/hal/lib\libHALD.a(I2C.o) (TWI_ConfigureMaster)
C:/Users/ground/Documents/GitHub/tevel2/GlobusSatProject/..//hal/at91/lib\libAt91D.a(ExitHandler.o)
                              ./src/TestingDemos/MainTest.o (restart)
C:/Users/ground/Documents/GitHub/tevel2/GlobusSatProject/..//hal/at91/lib\libAt91D.a(board_cstartup.o)
                              (entry)
C:/Users/ground/Documents/GitHub/tevel2/GlobusSatProject/..//hal/at91/lib\libAt91D.a(cp15_asm.o)
                              C:/Users/ground/Documents/GitHub/tevel2/GlobusSatProject/..//hal/at91/lib\libAt91D.a(cp15.o) (_readControlRegister)
C:/Users/ground/Documents/GitHub/tevel2/GlobusSatProject/..//hal/at91/lib\libAt91D.a(board_lowlevel.o)
                              C:/Users/ground/Documents/GitHub/tevel2/GlobusSatProject/..//hal/at91/lib\libAt91D.a(board_cstartup.o) (LowLevelInit)
C:/Users/ground/Documents/GitHub/tevel2/GlobusSatProject/..//hal/at91/lib\libAt91D.a(board_memories.o)
                              C:/Users/ground/Documents/GitHub/tevel2/GlobusSatProject/..//hal/at91/lib\libAt91D.a(board_lowlevel.o) (BOARD_RemapRam)
c:/isis/application/toolchain/bin/../lib/gcc/arm-none-eabi/4.7.4\libgcc.a(_udivsi3.o)
                              c:/isis/application/toolchain/bin/../lib/gcc/arm-none-eabi/4.7.4/../../../../arm-none-eabi/lib\libc_s.a(lib_a-vfprintf_i.o) (__aeabi_uidiv)
c:/isis/application/toolchain/bin/../lib/gcc/arm-none-eabi/4.7.4\libgcc.a(_divsi3.o)
                              c:/isis/application/toolchain/bin/../lib/gcc/arm-none-eabi/4.7.4/../../../../arm-none-eabi/lib\libc_s.a(lib_a-vfprintf_float.o) (__aeabi_idiv)
c:/isis/application/toolchain/bin/../lib/gcc/arm-none-eabi/4.7.4\libgcc.a(_dvmd_tls.o)
                              c:/isis/application/toolchain/bin/../lib/gcc/arm-none-eabi/4.7.4\libgcc.a(_udivsi3.o) (__aeabi_idiv0)
c:/isis/application/toolchain/bin/../lib/gcc/arm-none-eabi/4.7.4\libgcc.a(_arm_addsubdf3.o)
                              c:/isis/application/toolchain/bin/../lib/gcc/arm-none-eabi/4.7.4/../../../../arm-none-eabi/lib\libc_s.a(lib_a-dtoa.o) (__aeabi_dsub)
c:/isis/application/toolchain/bin/../lib/gcc/arm-none-eabi/4.7.4\libgcc.a(_arm_muldivdf3.o)
                              c:/isis/application/toolchain/bin/../lib/gcc/arm-none-eabi/4.7.4/../../../../arm-none-eabi/lib\libc_s.a(lib_a-dtoa.o) (__aeabi_dmul)
c:/isis/application/toolchain/bin/../lib/gcc/arm-none-eabi/4.7.4\libgcc.a(_arm_cmpdf2.o)
                              c:/isis/application/toolchain/bin/../lib/gcc/arm-none-eabi/4.7.4/../../../../arm-none-eabi/lib\libc_s.a(lib_a-vfprintf_float.o) (__aeabi_dcmpeq)
c:/isis/application/toolchain/bin/../lib/gcc/arm-none-eabi/4.7.4\libgcc.a(_arm_fixdfsi.o)
                              c:/isis/application/toolchain/bin/../lib/gcc/arm-none-eabi/4.7.4/../../../../arm-none-eabi/lib\libc_s.a(lib_a-dtoa.o) (__aeabi_d2iz)
c:/isis/application/toolchain/bin/../lib/gcc/arm-none-eabi/4.7.4\libgcc.a(_arm_fixunsdfsi.o)
                              c:/isis/application/toolchain/bin/../lib/gcc/arm-none-eabi/4.7.4/../../../../arm-none-eabi/lib\libc_s.a(lib_a-strtod.o) (__aeabi_d2uiz)
c:/isis/application/toolchain/bin/../lib/gcc/arm-none-eabi/4.7.4\libgcc.a(_arm_truncdfsf2.o)
                              c:/isis/application/toolchain/bin/../lib/gcc/arm-none-eabi/4.7.4/../../../../arm-none-eabi/lib\libc_s.a(lib_a-vfscanf_float.o) (__aeabi_d2f)
c:/isis/application/toolchain/bin/../lib/gcc/arm-none-eabi/4.7.4\libgcc.a(_arm_addsubsf3.o)
                              ./src/SubSystemModules/PowerManagment/EPS.o (__aeabi_fsub)
c:/isis/application/toolchain/bin/../lib/gcc/arm-none-eabi/4.7.4\libgcc.a(_arm_muldivsf3.o)
                              ./src/SubSystemModules/PowerManagment/EPS.o (__aeabi_fmul)
c:/isis/application/toolchain/bin/../lib/gcc/arm-none-eabi/4.7.4\libgcc.a(_arm_cmpsf2.o)
                              ./src/SubSystemModules/PowerManagment/EPS.o (__aeabi_fcmplt)
c:/isis/application/toolchain/bin/../lib/gcc/arm-none-eabi/4.7.4\libgcc.a(_arm_fixunssfsi.o)
                              ./src/SubSystemModules/PowerManagment/EPS.o (__aeabi_f2uiz)
c:/isis/application/toolchain/bin/../lib/gcc/arm-none-eabi/4.7.4/../../../../arm-none-eabi/lib\libc_s.a(lib_a-errno.o)
                              C:/Users/ground/Documents/GitHub/tevel2/GlobusSatProject/..//hal/freertos/lib\libFreeRTOSD.a(hooks.o) (__errno)
c:/isis/application/toolchain/bin/../lib/gcc/arm-none-eabi/4.7.4/../../../../arm-none-eabi/lib\libc_s.a(lib_a-fflush.o)
                              C:/Users/ground/Documents/GitHub/tevel2/GlobusSatProject/..//hal/hal/lib\libHALD.a(SPI.o) (fflush)
c:/isis/application/toolchain/bin/../lib/gcc/arm-none-eabi/4.7.4/../../../../arm-none-eabi/lib\libc_s.a(lib_a-findfp.o)
                              c:/isis/application/toolchain/bin/../lib/gcc/arm-none-eabi/4.7.4/../../../../arm-none-eabi/lib\libc_s.a(lib_a-fflush.o) (__sinit)
c:/isis/application/toolchain/bin/../lib/gcc/arm-none-eabi/4.7.4/../../../../arm-none-eabi/lib\libc_s.a(lib_a-fwalk.o)
                              c:/isis/application/toolchain/bin/../lib/gcc/arm-none-eabi/4.7.4/../../../../arm-none-eabi/lib\libc_s.a(lib_a-findfp.o) (_fwalk)
c:/isis/application/toolchain/bin/../lib/gcc/arm-none-eabi/4.7.4/../../../../arm-none-eabi/lib\libc_s.a(lib_a-memcmp.o)
                              C:/Users/ground/Documents/GitHub/tevel2/GlobusSatProject/..//hal/hal/lib\libHALD.a(FRAM.o) (memcmp)
c:/isis/application/toolchain/bin/../lib/gcc/arm-none-eabi/4.7.4/../../../../arm-none-eabi/lib\libc_s.a(lib_a-printf.o)
                              ./src/TestingDemos/CommandsTestingDemo.o (printf)
c:/isis/application/toolchain/bin/../lib/gcc/arm-none-eabi/4.7.4/../../../../arm-none-eabi/lib\libc_s.a(lib_a-puts.o)
                              ./src/TestingDemos/CommandsTestingDemo.o (puts)
c:/isis/application/toolchain/bin/../lib/gcc/arm-none-eabi/4.7.4/../../../../arm-none-eabi/lib\libc_s.a(lib_a-stdio.o)
                              c:/isis/application/toolchain/bin/../lib/gcc/arm-none-eabi/4.7.4/../../../../arm-none-eabi/lib\libc_s.a(lib_a-findfp.o) (__sread)
c:/isis/application/toolchain/bin/../lib/gcc/arm-none-eabi/4.7.4/../../../../arm-none-eabi/lib\libc_s.a(lib_a-strcpy.o)
                              ./src/TLM_management.o (strcpy)
c:/isis/application/toolchain/bin/../lib/gcc/arm-none-eabi/4.7.4/../../../../arm-none-eabi/lib\libc_s.a(lib_a-syswrite.o)
                              C:/Users/ground/Documents/GitHub/tevel2/GlobusSatProject/..//hal/freertos/lib\libFreeRTOSD.a(hooks.o) (write)
c:/isis/application/toolchain/bin/../lib/gcc/arm-none-eabi/4.7.4/../../../../arm-none-eabi/lib\libc_s.a(lib_a-vfprintf.o)
                              c:/isis/application/toolchain/bin/../lib/gcc/arm-none-eabi/4.7.4/../../../../arm-none-eabi/lib\libc_s.a(lib_a-printf.o) (_vfprintf_r)
c:/isis/application/toolchain/bin/../lib/gcc/arm-none-eabi/4.7.4/../../../../arm-none-eabi/lib\libc_s.a(lib_a-vsprintf.o)
                              ./src/SubSystemModules/Maintenance/Log.o (vsprintf)
c:/isis/application/toolchain/bin/../lib/gcc/arm-none-eabi/4.7.4/../../../../arm-none-eabi/lib\libc_s.a(lib_a-wbuf.o)
                              c:/isis/application/toolchain/bin/../lib/gcc/arm-none-eabi/4.7.4/../../../../arm-none-eabi/lib\libc_s.a(lib_a-vfprintf.o) (__swbuf_r)
c:/isis/application/toolchain/bin/../lib/gcc/arm-none-eabi/4.7.4/../../../../arm-none-eabi/lib\libc_s.a(lib_a-writer.o)
                              c:/isis/application/toolchain/bin/../lib/gcc/arm-none-eabi/4.7.4/../../../../arm-none-eabi/lib\libc_s.a(lib_a-stdio.o) (_write_r)
c:/isis/application/toolchain/bin/../lib/gcc/arm-none-eabi/4.7.4/../../../../arm-none-eabi/lib\libc_s.a(lib_a-wsetup.o)
                              c:/isis/application/toolchain/bin/../lib/gcc/arm-none-eabi/4.7.4/../../../../arm-none-eabi/lib\libc_s.a(lib_a-vfprintf.o) (__swsetup_r)
c:/isis/application/toolchain/bin/../lib/gcc/arm-none-eabi/4.7.4/../../../../arm-none-eabi/lib\libc_s.a(lib_a-closer.o)
                              c:/isis/application/toolchain/bin/../lib/gcc/arm-none-eabi/4.7.4/../../../../arm-none-eabi/lib\libc_s.a(lib_a-stdio.o) (_close_r)
c:/isis/application/toolchain/bin/../lib/gcc/arm-none-eabi/4.7.4/../../../../arm-none-eabi/lib\libc_s.a(lib_a-fputwc.o)
                              c:/isis/application/toolchain/bin/../lib/gcc/arm-none-eabi/4.7.4/../../../../arm-none-eabi/lib\libc_s.a(lib_a-vfprintf.o) (_fputwc_r)
c:/isis/application/toolchain/bin/../lib/gcc/arm-none-eabi/4.7.4/../../../../arm-none-eabi/lib\libc_s.a(lib_a-fvwrite.o)
                              c:/isis/application/toolchain/bin/../lib/gcc/arm-none-eabi/4.7.4/../../../../arm-none-eabi/lib\libc_s.a(lib_a-vfprintf.o) (__sfvwrite_r)
c:/isis/application/toolchain/bin/../lib/gcc/arm-none-eabi/4.7.4/../../../../arm-none-eabi/lib\libc_s.a(lib_a-lseekr.o)
                              c:/isis/application/toolchain/bin/../lib/gcc/arm-none-eabi/4.7.4/../../../../arm-none-eabi/lib\libc_s.a(lib_a-stdio.o) (_lseek_r)
c:/isis/application/toolchain/bin/../lib/gcc/arm-none-eabi/4.7.4/../../../../arm-none-eabi/lib\libc_s.a(lib_a-makebuf.o)
                              c:/isis/application/toolchain/bin/../lib/gcc/arm-none-eabi/4.7.4/../../../../arm-none-eabi/lib\libc_s.a(lib_a-wsetup.o) (__smakebuf_r)
c:/isis/application/toolchain/bin/../lib/gcc/arm-none-eabi/4.7.4/../../../../arm-none-eabi/lib\libc_s.a(lib_a-putc.o)
                              c:/isis/application/toolchain/bin/../lib/gcc/arm-none-eabi/4.7.4/../../../../arm-none-eabi/lib\libc_s.a(lib_a-puts.o) (_putc_r)
c:/isis/application/toolchain/bin/../lib/gcc/arm-none-eabi/4.7.4/../../../../arm-none-eabi/lib\libc_s.a(lib_a-readr.o)
                              c:/isis/application/toolchain/bin/../lib/gcc/arm-none-eabi/4.7.4/../../../../arm-none-eabi/lib\libc_s.a(lib_a-stdio.o) (_read_r)
c:/isis/application/toolchain/bin/../lib/gcc/arm-none-eabi/4.7.4/../../../../arm-none-eabi/lib\libc_s.a(lib_a-wcrtomb.o)
                              c:/isis/application/toolchain/bin/../lib/gcc/arm-none-eabi/4.7.4/../../../../arm-none-eabi/lib\libc_s.a(lib_a-fputwc.o) (_wcrtomb_r)
c:/isis/application/toolchain/bin/../lib/gcc/arm-none-eabi/4.7.4/../../../../arm-none-eabi/lib\libc_s.a(lib_a-wctomb_r.o)
                              c:/isis/application/toolchain/bin/../lib/gcc/arm-none-eabi/4.7.4/../../../../arm-none-eabi/lib\libc_s.a(lib_a-wcrtomb.o) (__wctomb)
c:/isis/application/toolchain/bin/../lib/gcc/arm-none-eabi/4.7.4/../../../../arm-none-eabi/lib\libc_s.a(lib_a-fstatr.o)
                              c:/isis/application/toolchain/bin/../lib/gcc/arm-none-eabi/4.7.4/../../../../arm-none-eabi/lib\libc_s.a(lib_a-makebuf.o) (_fstat_r)
c:/isis/application/toolchain/bin/../lib/gcc/arm-none-eabi/4.7.4/../../../../arm-none-eabi/lib\libc_s.a(lib_a-isattyr.o)
                              c:/isis/application/toolchain/bin/../lib/gcc/arm-none-eabi/4.7.4/../../../../arm-none-eabi/lib\libc_s.a(lib_a-makebuf.o) (_isatty_r)

Allocating common symbols
Common symbol       size              file

g_fatmutex          0x4               C:/Users/ground/Documents/GitHub/tevel2/GlobusSatProject/..//hal/hcc/lib\libHCCD.a(fat_common.o)
allocked_write_element
                    0xe1              ./src/TLM_management.o
dmp_pckt            0xe               ./src/SubSystemModules/Housekepping/Dump.o
data_to_send        0x89544           ./src/SubSystemModules/Housekepping/Dump.o
errno               0x4               c:/isis/application/toolchain/bin/../lib/gcc/arm-none-eabi/4.7.4/../../../../arm-none-eabi/lib\libc_s.a(lib_a-reent.o)
subsystem           0x1               ./src/SubSystemModules/PowerManagment/EPS.o
allocked_read_elements
                    0xf7314           ./src/SubSystemModules/Housekepping/Dump.o
g_multi             0x2140            C:/Users/ground/Documents/GitHub/tevel2/GlobusSatProject/..//hal/hcc/lib\libHCCD.a(fat_common.o)
allocked_read_element
                    0xf7314           ./src/TLM_management.o
g_system_state      0x1               ./src/SubSystemModules/PowerManagment/EPSOperationModes.o
xQueueRegistry      0x100             C:/Users/ground/Documents/GitHub/tevel2/GlobusSatProject/..//hal/freertos/lib\libFreeRTOSD.a(queue.o)
__hexdig            0x100             c:/isis/application/toolchain/bin/../lib/gcc/arm-none-eabi/4.7.4/../../../../arm-none-eabi/lib\libc_s.a(lib_a-gdtoa-gethex.o)
logBuffer           0x2a3             ./src/SubSystemModules/Maintenance/Log.o
xFileOpenHandler    0x4               ./src/TLM_management.o
f_format_progress   0x4               C:/Users/ground/Documents/GitHub/tevel2/GlobusSatProject/..//hal/hcc/lib\libHCCD.a(fat_common.o)
lastErrorMsg        0x50              ./src/SubSystemModules/Maintenance/Log.o
logMsg              0x50              ./src/SubSystemModules/Maintenance/Log.o
allocked_delete_element
                    0xe1              ./src/TLM_management.o
cmd                 0xf5              ./src/SubSystemModules/Communication/TRXVU.o

Discarded input sections

 .text          0x00000000        0x0 c:/isis/application/toolchain/bin/../lib/gcc/arm-none-eabi/4.7.4/../../../../arm-none-eabi/lib\libc_s.a(lib_a-vfprintf_float.o)
 .data          0x00000000        0x0 c:/isis/application/toolchain/bin/../lib/gcc/arm-none-eabi/4.7.4/../../../../arm-none-eabi/lib\libc_s.a(lib_a-vfprintf_float.o)
 .bss           0x00000000        0x0 c:/isis/application/toolchain/bin/../lib/gcc/arm-none-eabi/4.7.4/../../../../arm-none-eabi/lib\libc_s.a(lib_a-vfprintf_float.o)
 .text          0x00000000        0x0 c:/isis/application/toolchain/bin/../lib/gcc/arm-none-eabi/4.7.4/../../../../arm-none-eabi/lib\libc_s.a(lib_a-vfprintf_i.o)
 .data          0x00000000        0x0 c:/isis/application/toolchain/bin/../lib/gcc/arm-none-eabi/4.7.4/../../../../arm-none-eabi/lib\libc_s.a(lib_a-vfprintf_i.o)
 .bss           0x00000000        0x0 c:/isis/application/toolchain/bin/../lib/gcc/arm-none-eabi/4.7.4/../../../../arm-none-eabi/lib\libc_s.a(lib_a-vfprintf_i.o)
 .text          0x00000000        0x0 c:/isis/application/toolchain/bin/../lib/gcc/arm-none-eabi/4.7.4/../../../../arm-none-eabi/lib\libc_s.a(lib_a-vfscanf_float.o)
 .data          0x00000000        0x0 c:/isis/application/toolchain/bin/../lib/gcc/arm-none-eabi/4.7.4/../../../../arm-none-eabi/lib\libc_s.a(lib_a-vfscanf_float.o)
 .bss           0x00000000        0x0 c:/isis/application/toolchain/bin/../lib/gcc/arm-none-eabi/4.7.4/../../../../arm-none-eabi/lib\libc_s.a(lib_a-vfscanf_float.o)
 .text          0x00000000        0x0 c:/isis/application/toolchain/bin/../lib/gcc/arm-none-eabi/4.7.4/../../../../arm-none-eabi/lib\libc_s.a(lib_a-dtoa.o)
 .data          0x00000000        0x0 c:/isis/application/toolchain/bin/../lib/gcc/arm-none-eabi/4.7.4/../../../../arm-none-eabi/lib\libc_s.a(lib_a-dtoa.o)
 .bss           0x00000000        0x0 c:/isis/application/toolchain/bin/../lib/gcc/arm-none-eabi/4.7.4/../../../../arm-none-eabi/lib\libc_s.a(lib_a-dtoa.o)
 .text          0x00000000        0x0 c:/isis/application/toolchain/bin/../lib/gcc/arm-none-eabi/4.7.4/../../../../arm-none-eabi/lib\libc_s.a(lib_a-locale.o)
 .data          0x00000000        0x0 c:/isis/application/toolchain/bin/../lib/gcc/arm-none-eabi/4.7.4/../../../../arm-none-eabi/lib\libc_s.a(lib_a-locale.o)
 .bss           0x00000000        0x0 c:/isis/application/toolchain/bin/../lib/gcc/arm-none-eabi/4.7.4/../../../../arm-none-eabi/lib\libc_s.a(lib_a-locale.o)
 .text._setlocale_r
                0x00000000       0x6c c:/isis/application/toolchain/bin/../lib/gcc/arm-none-eabi/4.7.4/../../../../arm-none-eabi/lib\libc_s.a(lib_a-locale.o)
 .text.__locale_charset
                0x00000000        0xc c:/isis/application/toolchain/bin/../lib/gcc/arm-none-eabi/4.7.4/../../../../arm-none-eabi/lib\libc_s.a(lib_a-locale.o)
 .text.__locale_mb_cur_max
                0x00000000       0x10 c:/isis/application/toolchain/bin/../lib/gcc/arm-none-eabi/4.7.4/../../../../arm-none-eabi/lib\libc_s.a(lib_a-locale.o)
 .text.__locale_msgcharset
                0x00000000        0xc c:/isis/application/toolchain/bin/../lib/gcc/arm-none-eabi/4.7.4/../../../../arm-none-eabi/lib\libc_s.a(lib_a-locale.o)
 .text.__locale_cjk_lang
                0x00000000        0x8 c:/isis/application/toolchain/bin/../lib/gcc/arm-none-eabi/4.7.4/../../../../arm-none-eabi/lib\libc_s.a(lib_a-locale.o)
 .text.setlocale
                0x00000000       0x1c c:/isis/application/toolchain/bin/../lib/gcc/arm-none-eabi/4.7.4/../../../../arm-none-eabi/lib\libc_s.a(lib_a-locale.o)
 .text.localeconv
                0x00000000        0xc c:/isis/application/toolchain/bin/../lib/gcc/arm-none-eabi/4.7.4/../../../../arm-none-eabi/lib\libc_s.a(lib_a-locale.o)
 .data.lc_message_charset
                0x00000000       0x20 c:/isis/application/toolchain/bin/../lib/gcc/arm-none-eabi/4.7.4/../../../../arm-none-eabi/lib\libc_s.a(lib_a-locale.o)
 .bss._PathLocale
                0x00000000        0x4 c:/isis/application/toolchain/bin/../lib/gcc/arm-none-eabi/4.7.4/../../../../arm-none-eabi/lib\libc_s.a(lib_a-locale.o)
 .bss.__nlocale_changed
                0x00000000        0x4 c:/isis/application/toolchain/bin/../lib/gcc/arm-none-eabi/4.7.4/../../../../arm-none-eabi/lib\libc_s.a(lib_a-locale.o)
 .bss.__mlocale_changed
                0x00000000        0x4 c:/isis/application/toolchain/bin/../lib/gcc/arm-none-eabi/4.7.4/../../../../arm-none-eabi/lib\libc_s.a(lib_a-locale.o)
 .data.lc_ctype_charset
                0x00000000       0x20 c:/isis/application/toolchain/bin/../lib/gcc/arm-none-eabi/4.7.4/../../../../arm-none-eabi/lib\libc_s.a(lib_a-locale.o)
 .data.__mb_cur_max
                0x00000000        0x4 c:/isis/application/toolchain/bin/../lib/gcc/arm-none-eabi/4.7.4/../../../../arm-none-eabi/lib\libc_s.a(lib_a-locale.o)
 .text          0x00000000        0x0 c:/isis/application/toolchain/bin/../lib/gcc/arm-none-eabi/4.7.4/../../../../arm-none-eabi/lib\libc_s.a(lib_a-malloc.o)
 .data          0x00000000        0x0 c:/isis/application/toolchain/bin/../lib/gcc/arm-none-eabi/4.7.4/../../../../arm-none-eabi/lib\libc_s.a(lib_a-malloc.o)
 .bss           0x00000000        0x0 c:/isis/application/toolchain/bin/../lib/gcc/arm-none-eabi/4.7.4/../../../../arm-none-eabi/lib\libc_s.a(lib_a-malloc.o)
 .text          0x00000000        0x0 c:/isis/application/toolchain/bin/../lib/gcc/arm-none-eabi/4.7.4/../../../../arm-none-eabi/lib\libc_s.a(lib_a-mallocr.o)
 .data          0x00000000        0x0 c:/isis/application/toolchain/bin/../lib/gcc/arm-none-eabi/4.7.4/../../../../arm-none-eabi/lib\libc_s.a(lib_a-mallocr.o)
 .bss           0x00000000        0x0 c:/isis/application/toolchain/bin/../lib/gcc/arm-none-eabi/4.7.4/../../../../arm-none-eabi/lib\libc_s.a(lib_a-mallocr.o)
 .text          0x00000000        0x0 c:/isis/application/toolchain/bin/../lib/gcc/arm-none-eabi/4.7.4/../../../../arm-none-eabi/lib\libc_s.a(lib_a-memcpy.o)
 .data          0x00000000        0x0 c:/isis/application/toolchain/bin/../lib/gcc/arm-none-eabi/4.7.4/../../../../arm-none-eabi/lib\libc_s.a(lib_a-memcpy.o)
 .bss           0x00000000        0x0 c:/isis/application/toolchain/bin/../lib/gcc/arm-none-eabi/4.7.4/../../../../arm-none-eabi/lib\libc_s.a(lib_a-memcpy.o)
 .text          0x00000000        0x0 c:/isis/application/toolchain/bin/../lib/gcc/arm-none-eabi/4.7.4/../../../../arm-none-eabi/lib\libc_s.a(lib_a-mprec.o)
 .data          0x00000000        0x0 c:/isis/application/toolchain/bin/../lib/gcc/arm-none-eabi/4.7.4/../../../../arm-none-eabi/lib\libc_s.a(lib_a-mprec.o)
 .bss           0x00000000        0x0 c:/isis/application/toolchain/bin/../lib/gcc/arm-none-eabi/4.7.4/../../../../arm-none-eabi/lib\libc_s.a(lib_a-mprec.o)
 .text._mprec_log10
                0x00000000       0x4c c:/isis/application/toolchain/bin/../lib/gcc/arm-none-eabi/4.7.4/../../../../arm-none-eabi/lib\libc_s.a(lib_a-mprec.o)
 .rodata.__mprec_tinytens
                0x00000000       0x28 c:/isis/application/toolchain/bin/../lib/gcc/arm-none-eabi/4.7.4/../../../../arm-none-eabi/lib\libc_s.a(lib_a-mprec.o)
 .text          0x00000000        0x0 c:/isis/application/toolchain/bin/../lib/gcc/arm-none-eabi/4.7.4/../../../../arm-none-eabi/lib\libc_s.a(lib_a-s_fpclassify.o)
 .data          0x00000000        0x0 c:/isis/application/toolchain/bin/../lib/gcc/arm-none-eabi/4.7.4/../../../../arm-none-eabi/lib\libc_s.a(lib_a-s_fpclassify.o)
 .bss           0x00000000        0x0 c:/isis/application/toolchain/bin/../lib/gcc/arm-none-eabi/4.7.4/../../../../arm-none-eabi/lib\libc_s.a(lib_a-s_fpclassify.o)
 .text          0x00000000        0x0 c:/isis/application/toolchain/bin/../lib/gcc/arm-none-eabi/4.7.4/../../../../arm-none-eabi/lib\libc_s.a(lib_a-sbrkr.o)
 .data          0x00000000        0x0 c:/isis/application/toolchain/bin/../lib/gcc/arm-none-eabi/4.7.4/../../../../arm-none-eabi/lib\libc_s.a(lib_a-sbrkr.o)
 .bss           0x00000000        0x0 c:/isis/application/toolchain/bin/../lib/gcc/arm-none-eabi/4.7.4/../../../../arm-none-eabi/lib\libc_s.a(lib_a-sbrkr.o)
 .text          0x00000000        0x0 c:/isis/application/toolchain/bin/../lib/gcc/arm-none-eabi/4.7.4/../../../../arm-none-eabi/lib\libc_s.a(lib_a-sf_nan.o)
 .data          0x00000000        0x0 c:/isis/application/toolchain/bin/../lib/gcc/arm-none-eabi/4.7.4/../../../../arm-none-eabi/lib\libc_s.a(lib_a-sf_nan.o)
 .bss           0x00000000        0x0 c:/isis/application/toolchain/bin/../lib/gcc/arm-none-eabi/4.7.4/../../../../arm-none-eabi/lib\libc_s.a(lib_a-sf_nan.o)
 .text          0x00000000        0x0 c:/isis/application/toolchain/bin/../lib/gcc/arm-none-eabi/4.7.4/../../../../arm-none-eabi/lib\libc_s.a(lib_a-sprintf.o)
 .data          0x00000000        0x0 c:/isis/application/toolchain/bin/../lib/gcc/arm-none-eabi/4.7.4/../../../../arm-none-eabi/lib\libc_s.a(lib_a-sprintf.o)
 .bss           0x00000000        0x0 c:/isis/application/toolchain/bin/../lib/gcc/arm-none-eabi/4.7.4/../../../../arm-none-eabi/lib\libc_s.a(lib_a-sprintf.o)
 .text._sprintf_r
                0x00000000       0x60 c:/isis/application/toolchain/bin/../lib/gcc/arm-none-eabi/4.7.4/../../../../arm-none-eabi/lib\libc_s.a(lib_a-sprintf.o)
 .text          0x00000000        0x0 c:/isis/application/toolchain/bin/../lib/gcc/arm-none-eabi/4.7.4/../../../../arm-none-eabi/lib\libc_s.a(lib_a-strcmp.o)
 .data          0x00000000        0x0 c:/isis/application/toolchain/bin/../lib/gcc/arm-none-eabi/4.7.4/../../../../arm-none-eabi/lib\libc_s.a(lib_a-strcmp.o)
 .bss           0x00000000        0x0 c:/isis/application/toolchain/bin/../lib/gcc/arm-none-eabi/4.7.4/../../../../arm-none-eabi/lib\libc_s.a(lib_a-strcmp.o)
 .text          0x00000000        0x0 c:/isis/application/toolchain/bin/../lib/gcc/arm-none-eabi/4.7.4/../../../../arm-none-eabi/lib\libc_s.a(lib_a-strlen.o)
 .data          0x00000000        0x0 c:/isis/application/toolchain/bin/../lib/gcc/arm-none-eabi/4.7.4/../../../../arm-none-eabi/lib\libc_s.a(lib_a-strlen.o)
 .bss           0x00000000        0x0 c:/isis/application/toolchain/bin/../lib/gcc/arm-none-eabi/4.7.4/../../../../arm-none-eabi/lib\libc_s.a(lib_a-strlen.o)
 .text          0x00000000        0x0 c:/isis/application/toolchain/bin/../lib/gcc/arm-none-eabi/4.7.4/../../../../arm-none-eabi/lib\libc_s.a(lib_a-strtod.o)
 .data          0x00000000        0x0 c:/isis/application/toolchain/bin/../lib/gcc/arm-none-eabi/4.7.4/../../../../arm-none-eabi/lib\libc_s.a(lib_a-strtod.o)
 .bss           0x00000000        0x0 c:/isis/application/toolchain/bin/../lib/gcc/arm-none-eabi/4.7.4/../../../../arm-none-eabi/lib\libc_s.a(lib_a-strtod.o)
 .text.strtod   0x00000000       0x1c c:/isis/application/toolchain/bin/../lib/gcc/arm-none-eabi/4.7.4/../../../../arm-none-eabi/lib\libc_s.a(lib_a-strtod.o)
 .text.strtof   0x00000000       0x50 c:/isis/application/toolchain/bin/../lib/gcc/arm-none-eabi/4.7.4/../../../../arm-none-eabi/lib\libc_s.a(lib_a-strtod.o)
 .text          0x00000000        0x0 c:/isis/application/toolchain/bin/../lib/gcc/arm-none-eabi/4.7.4/../../../../arm-none-eabi/lib\libc_s.a(lib_a-strtol.o)
 .data          0x00000000        0x0 c:/isis/application/toolchain/bin/../lib/gcc/arm-none-eabi/4.7.4/../../../../arm-none-eabi/lib\libc_s.a(lib_a-strtol.o)
 .bss           0x00000000        0x0 c:/isis/application/toolchain/bin/../lib/gcc/arm-none-eabi/4.7.4/../../../../arm-none-eabi/lib\libc_s.a(lib_a-strtol.o)
 .text.strtol   0x00000000       0x2c c:/isis/application/toolchain/bin/../lib/gcc/arm-none-eabi/4.7.4/../../../../arm-none-eabi/lib\libc_s.a(lib_a-strtol.o)
 .text          0x00000000        0x0 c:/isis/application/toolchain/bin/../lib/gcc/arm-none-eabi/4.7.4/../../../../arm-none-eabi/lib\libc_s.a(lib_a-svfprintf.o)
 .data          0x00000000        0x0 c:/isis/application/toolchain/bin/../lib/gcc/arm-none-eabi/4.7.4/../../../../arm-none-eabi/lib\libc_s.a(lib_a-svfprintf.o)
 .bss           0x00000000        0x0 c:/isis/application/toolchain/bin/../lib/gcc/arm-none-eabi/4.7.4/../../../../arm-none-eabi/lib\libc_s.a(lib_a-svfprintf.o)
 .text.__ssprint_r
                0x00000000      0x184 c:/isis/application/toolchain/bin/../lib/gcc/arm-none-eabi/4.7.4/../../../../arm-none-eabi/lib\libc_s.a(lib_a-svfprintf.o)
 .text          0x00000000        0x0 c:/isis/application/toolchain/bin/../lib/gcc/arm-none-eabi/4.7.4/../../../../arm-none-eabi/lib\libc_s.a(lib_a-callocr.o)
 .data          0x00000000        0x0 c:/isis/application/toolchain/bin/../lib/gcc/arm-none-eabi/4.7.4/../../../../arm-none-eabi/lib\libc_s.a(lib_a-callocr.o)
 .bss           0x00000000        0x0 c:/isis/application/toolchain/bin/../lib/gcc/arm-none-eabi/4.7.4/../../../../arm-none-eabi/lib\libc_s.a(lib_a-callocr.o)
 .text          0x00000000        0x0 c:/isis/application/toolchain/bin/../lib/gcc/arm-none-eabi/4.7.4/../../../../arm-none-eabi/lib\libc_s.a(lib_a-ctype_.o)
 .data          0x00000000        0x0 c:/isis/application/toolchain/bin/../lib/gcc/arm-none-eabi/4.7.4/../../../../arm-none-eabi/lib\libc_s.a(lib_a-ctype_.o)
 .bss           0x00000000        0x0 c:/isis/application/toolchain/bin/../lib/gcc/arm-none-eabi/4.7.4/../../../../arm-none-eabi/lib\libc_s.a(lib_a-ctype_.o)
 .text          0x00000000        0x0 c:/isis/application/toolchain/bin/../lib/gcc/arm-none-eabi/4.7.4/../../../../arm-none-eabi/lib\libc_s.a(lib_a-freer.o)
 .data          0x00000000        0x0 c:/isis/application/toolchain/bin/../lib/gcc/arm-none-eabi/4.7.4/../../../../arm-none-eabi/lib\libc_s.a(lib_a-freer.o)
 .bss           0x00000000        0x0 c:/isis/application/toolchain/bin/../lib/gcc/arm-none-eabi/4.7.4/../../../../arm-none-eabi/lib\libc_s.a(lib_a-freer.o)
 .text          0x00000000        0x0 c:/isis/application/toolchain/bin/../lib/gcc/arm-none-eabi/4.7.4/../../../../arm-none-eabi/lib\libc_s.a(lib_a-gdtoa-gethex.o)
 .data          0x00000000        0x0 c:/isis/application/toolchain/bin/../lib/gcc/arm-none-eabi/4.7.4/../../../../arm-none-eabi/lib\libc_s.a(lib_a-gdtoa-gethex.o)
 .bss           0x00000000        0x0 c:/isis/application/toolchain/bin/../lib/gcc/arm-none-eabi/4.7.4/../../../../arm-none-eabi/lib\libc_s.a(lib_a-gdtoa-gethex.o)
 .text          0x00000000        0x0 c:/isis/application/toolchain/bin/../lib/gcc/arm-none-eabi/4.7.4/../../../../arm-none-eabi/lib\libc_s.a(lib_a-gdtoa-hexnan.o)
 .data          0x00000000        0x0 c:/isis/application/toolchain/bin/../lib/gcc/arm-none-eabi/4.7.4/../../../../arm-none-eabi/lib\libc_s.a(lib_a-gdtoa-hexnan.o)
 .bss           0x00000000        0x0 c:/isis/application/toolchain/bin/../lib/gcc/arm-none-eabi/4.7.4/../../../../arm-none-eabi/lib\libc_s.a(lib_a-gdtoa-hexnan.o)
 .text          0x00000000        0x0 c:/isis/application/toolchain/bin/../lib/gcc/arm-none-eabi/4.7.4/../../../../arm-none-eabi/lib\libc_s.a(lib_a-impure.o)
 .data          0x00000000        0x0 c:/isis/application/toolchain/bin/../lib/gcc/arm-none-eabi/4.7.4/../../../../arm-none-eabi/lib\libc_s.a(lib_a-impure.o)
 .bss           0x00000000        0x0 c:/isis/application/toolchain/bin/../lib/gcc/arm-none-eabi/4.7.4/../../../../arm-none-eabi/lib\libc_s.a(lib_a-impure.o)
 .text          0x00000000        0x0 c:/isis/application/toolchain/bin/../lib/gcc/arm-none-eabi/4.7.4/../../../../arm-none-eabi/lib\libc_s.a(lib_a-memchr.o)
 .data          0x00000000        0x0 c:/isis/application/toolchain/bin/../lib/gcc/arm-none-eabi/4.7.4/../../../../arm-none-eabi/lib\libc_s.a(lib_a-memchr.o)
 .bss           0x00000000        0x0 c:/isis/application/toolchain/bin/../lib/gcc/arm-none-eabi/4.7.4/../../../../arm-none-eabi/lib\libc_s.a(lib_a-memchr.o)
 .text          0x00000000        0x0 c:/isis/application/toolchain/bin/../lib/gcc/arm-none-eabi/4.7.4/../../../../arm-none-eabi/lib\libc_s.a(lib_a-memmove.o)
 .data          0x00000000        0x0 c:/isis/application/toolchain/bin/../lib/gcc/arm-none-eabi/4.7.4/../../../../arm-none-eabi/lib\libc_s.a(lib_a-memmove.o)
 .bss           0x00000000        0x0 c:/isis/application/toolchain/bin/../lib/gcc/arm-none-eabi/4.7.4/../../../../arm-none-eabi/lib\libc_s.a(lib_a-memmove.o)
 .text.memmove  0x00000000       0x64 c:/isis/application/toolchain/bin/../lib/gcc/arm-none-eabi/4.7.4/../../../../arm-none-eabi/lib\libc_s.a(lib_a-memmove.o)
 .ARM.attributes
                0x00000000       0x30 c:/isis/application/toolchain/bin/../lib/gcc/arm-none-eabi/4.7.4/../../../../arm-none-eabi/lib\libc_s.a(lib_a-memmove.o)
 .debug_frame   0x00000000       0x28 c:/isis/application/toolchain/bin/../lib/gcc/arm-none-eabi/4.7.4/../../../../arm-none-eabi/lib\libc_s.a(lib_a-memmove.o)
 .text          0x00000000        0x0 c:/isis/application/toolchain/bin/../lib/gcc/arm-none-eabi/4.7.4/../../../../arm-none-eabi/lib\libc_s.a(lib_a-memset.o)
 .data          0x00000000        0x0 c:/isis/application/toolchain/bin/../lib/gcc/arm-none-eabi/4.7.4/../../../../arm-none-eabi/lib\libc_s.a(lib_a-memset.o)
 .bss           0x00000000        0x0 c:/isis/application/toolchain/bin/../lib/gcc/arm-none-eabi/4.7.4/../../../../arm-none-eabi/lib\libc_s.a(lib_a-memset.o)
 .text          0x00000000        0x0 c:/isis/application/toolchain/bin/../lib/gcc/arm-none-eabi/4.7.4/../../../../arm-none-eabi/lib\libc_s.a(lib_a-reallocr.o)
 .data          0x00000000        0x0 c:/isis/application/toolchain/bin/../lib/gcc/arm-none-eabi/4.7.4/../../../../arm-none-eabi/lib\libc_s.a(lib_a-reallocr.o)
 .bss           0x00000000        0x0 c:/isis/application/toolchain/bin/../lib/gcc/arm-none-eabi/4.7.4/../../../../arm-none-eabi/lib\libc_s.a(lib_a-reallocr.o)
 .text          0x00000000        0x0 c:/isis/application/toolchain/bin/../lib/gcc/arm-none-eabi/4.7.4/../../../../arm-none-eabi/lib\libc_s.a(lib_a-reent.o)
 .data          0x00000000        0x0 c:/isis/application/toolchain/bin/../lib/gcc/arm-none-eabi/4.7.4/../../../../arm-none-eabi/lib\libc_s.a(lib_a-reent.o)
 .bss           0x00000000        0x0 c:/isis/application/toolchain/bin/../lib/gcc/arm-none-eabi/4.7.4/../../../../arm-none-eabi/lib\libc_s.a(lib_a-reent.o)
 .text.cleanup_glue
                0x00000000       0x2c c:/isis/application/toolchain/bin/../lib/gcc/arm-none-eabi/4.7.4/../../../../arm-none-eabi/lib\libc_s.a(lib_a-reent.o)
 .text._reclaim_reent
                0x00000000      0x13c c:/isis/application/toolchain/bin/../lib/gcc/arm-none-eabi/4.7.4/../../../../arm-none-eabi/lib\libc_s.a(lib_a-reent.o)
 .text._wrapup_reent
                0x00000000       0x5c c:/isis/application/toolchain/bin/../lib/gcc/arm-none-eabi/4.7.4/../../../../arm-none-eabi/lib\libc_s.a(lib_a-reent.o)
 .text          0x00000000        0x0 c:/isis/application/toolchain/bin/../lib/gcc/arm-none-eabi/4.7.4/../../../../arm-none-eabi/lib\libc_s.a(lib_a-strncmp.o)
 .data          0x00000000        0x0 c:/isis/application/toolchain/bin/../lib/gcc/arm-none-eabi/4.7.4/../../../../arm-none-eabi/lib\libc_s.a(lib_a-strncmp.o)
 .bss           0x00000000        0x0 c:/isis/application/toolchain/bin/../lib/gcc/arm-none-eabi/4.7.4/../../../../arm-none-eabi/lib\libc_s.a(lib_a-strncmp.o)
 .text          0x00000000        0x0 c:/isis/application/toolchain/bin/../lib/gcc/arm-none-eabi/4.7.4/../../../../arm-none-eabi/lib\libc_s.a(lib_a-msizer.o)
 .data          0x00000000        0x0 c:/isis/application/toolchain/bin/../lib/gcc/arm-none-eabi/4.7.4/../../../../arm-none-eabi/lib\libc_s.a(lib_a-msizer.o)
 .bss           0x00000000        0x0 c:/isis/application/toolchain/bin/../lib/gcc/arm-none-eabi/4.7.4/../../../../arm-none-eabi/lib\libc_s.a(lib_a-msizer.o)
 .text          0x00000000        0x0 ./src/TestingDemos/CommandsTestingDemo.o
 .data          0x00000000        0x0 ./src/TestingDemos/CommandsTestingDemo.o
 .bss           0x00000000        0x0 ./src/TestingDemos/CommandsTestingDemo.o
 .rodata        0x00000000      0x1c0 ./src/TestingDemos/CommandsTestingDemo.o
 .text.TestActUponCommand
                0x00000000      0x118 ./src/TestingDemos/CommandsTestingDemo.o
 .text.TestAssmbleCommand
                0x00000000      0x1c0 ./src/TestingDemos/CommandsTestingDemo.o
 .text.TestGetOnlineCommand
                0x00000000       0xcc ./src/TestingDemos/CommandsTestingDemo.o
 .text.selectAndExecuteCommandsDemoTest
                0x00000000       0xe8 ./src/TestingDemos/CommandsTestingDemo.o
 .text.MainCommandsTestBench
                0x00000000       0x44 ./src/TestingDemos/CommandsTestingDemo.o
 .debug_info    0x00000000      0x314 ./src/TestingDemos/CommandsTestingDemo.o
 .debug_abbrev  0x00000000       0xe0 ./src/TestingDemos/CommandsTestingDemo.o
 .debug_loc     0x00000000       0xdc ./src/TestingDemos/CommandsTestingDemo.o
 .debug_aranges
                0x00000000       0x40 ./src/TestingDemos/CommandsTestingDemo.o
 .debug_ranges  0x00000000       0x30 ./src/TestingDemos/CommandsTestingDemo.o
 .debug_line    0x00000000      0x27d ./src/TestingDemos/CommandsTestingDemo.o
 .debug_str     0x00000000      0x2f2 ./src/TestingDemos/CommandsTestingDemo.o
 .comment       0x00000000       0x71 ./src/TestingDemos/CommandsTestingDemo.o
 .ARM.attributes
                0x00000000       0x32 ./src/TestingDemos/CommandsTestingDemo.o
 .debug_frame   0x00000000       0x9c ./src/TestingDemos/CommandsTestingDemo.o
 .text          0x00000000        0x0 ./src/TestingDemos/EpsTestingDemo.o
 .data          0x00000000        0x0 ./src/TestingDemos/EpsTestingDemo.o
 .bss           0x00000000        0x0 ./src/TestingDemos/EpsTestingDemo.o
 .rodata        0x00000000       0x3c ./src/TestingDemos/EpsTestingDemo.o
 .text.TestGetBatteryVoltage
                0x00000000       0x64 ./src/TestingDemos/EpsTestingDemo.o
 .text.MainEpsTestBench
                0x00000000       0x18 ./src/TestingDemos/EpsTestingDemo.o
 .debug_info    0x00000000       0xe7 ./src/TestingDemos/EpsTestingDemo.o
 .debug_abbrev  0x00000000       0x89 ./src/TestingDemos/EpsTestingDemo.o
 .debug_loc     0x00000000       0x58 ./src/TestingDemos/EpsTestingDemo.o
 .debug_aranges
                0x00000000       0x28 ./src/TestingDemos/EpsTestingDemo.o
 .debug_ranges  0x00000000       0x18 ./src/TestingDemos/EpsTestingDemo.o
 .debug_line    0x00000000      0x120 ./src/TestingDemos/EpsTestingDemo.o
 .debug_str     0x00000000      0x17d ./src/TestingDemos/EpsTestingDemo.o
 .comment       0x00000000       0x71 ./src/TestingDemos/EpsTestingDemo.o
 .ARM.attributes
                0x00000000       0x32 ./src/TestingDemos/EpsTestingDemo.o
 .debug_frame   0x00000000       0x48 ./src/TestingDemos/EpsTestingDemo.o
 .text          0x00000000        0x0 ./src/TestingDemos/FileSystemTestingDemo.o
 .data          0x00000000        0x0 ./src/TestingDemos/FileSystemTestingDemo.o
 .bss           0x00000000        0x0 ./src/TestingDemos/FileSystemTestingDemo.o
 .text.MainFileSystemTestBench
                0x00000000       0x1c ./src/TestingDemos/FileSystemTestingDemo.o
 .debug_info    0x00000000       0x63 ./src/TestingDemos/FileSystemTestingDemo.o
 .debug_abbrev  0x00000000       0x46 ./src/TestingDemos/FileSystemTestingDemo.o
 .debug_loc     0x00000000       0x2c ./src/TestingDemos/FileSystemTestingDemo.o
 .debug_aranges
                0x00000000       0x20 ./src/TestingDemos/FileSystemTestingDemo.o
 .debug_ranges  0x00000000       0x10 ./src/TestingDemos/FileSystemTestingDemo.o
 .debug_line    0x00000000       0xb9 ./src/TestingDemos/FileSystemTestingDemo.o
 .debug_str     0x00000000      0x102 ./src/TestingDemos/FileSystemTestingDemo.o
 .comment       0x00000000       0x71 ./src/TestingDemos/FileSystemTestingDemo.o
 .ARM.attributes
                0x00000000       0x32 ./src/TestingDemos/FileSystemTestingDemo.o
 .debug_frame   0x00000000       0x28 ./src/TestingDemos/FileSystemTestingDemo.o
 .text          0x00000000        0x0 ./src/TestingDemos/MainTest.o
 .data          0x00000000        0x0 ./src/TestingDemos/MainTest.o
 .bss           0x00000000        0x0 ./src/TestingDemos/MainTest.o
 .rodata        0x00000000      0x3c4 ./src/TestingDemos/MainTest.o
 .text.selectAndExecuteTest
                0x00000000      0x168 ./src/TestingDemos/MainTest.o
 .text.testsIdle
                0x00000000       0x94 ./src/TestingDemos/MainTest.o
 .text.testsMute
                0x00000000       0x98 ./src/TestingDemos/MainTest.o
 .text.TestFirstActivionProc
                0x00000000       0x54 ./src/TestingDemos/MainTest.o
 .text.TestIsFirstAct
                0x00000000       0x70 ./src/TestingDemos/MainTest.o
 .text.TestisFirstActivation
                0x00000000       0x6c ./src/TestingDemos/MainTest.o
 .text.TestUpdateBeaconInterval
                0x00000000       0x6c ./src/TestingDemos/MainTest.o
 .text.TestRestartSkipDeployment
                0x00000000       0x30 ./src/TestingDemos/MainTest.o
 .text.taskTesting
                0x00000000       0xa8 ./src/TestingDemos/MainTest.o
 .debug_info    0x00000000      0x308 ./src/TestingDemos/MainTest.o
 .debug_abbrev  0x00000000      0x14d ./src/TestingDemos/MainTest.o
 .debug_loc     0x00000000      0x18c ./src/TestingDemos/MainTest.o
 .debug_aranges
                0x00000000       0x60 ./src/TestingDemos/MainTest.o
 .debug_ranges  0x00000000       0x50 ./src/TestingDemos/MainTest.o
 .debug_line    0x00000000      0x343 ./src/TestingDemos/MainTest.o
 .debug_str     0x00000000      0x2a3 ./src/TestingDemos/MainTest.o
 .comment       0x00000000       0x71 ./src/TestingDemos/MainTest.o
 .ARM.attributes
                0x00000000       0x32 ./src/TestingDemos/MainTest.o
 .debug_frame   0x00000000      0x10c ./src/TestingDemos/MainTest.o
 .text          0x00000000        0x0 ./src/TestingDemos/MaintenanceTestingDemo.o
 .data          0x00000000        0x0 ./src/TestingDemos/MaintenanceTestingDemo.o
 .bss           0x00000000        0x0 ./src/TestingDemos/MaintenanceTestingDemo.o
 .rodata        0x00000000      0x2b4 ./src/TestingDemos/MaintenanceTestingDemo.o
 .text.TestIsFS_Corrupted
                0x00000000       0xd4 ./src/TestingDemos/MaintenanceTestingDemo.o
 .text.TestWakeupFromResetCMD
                0x00000000       0x30 ./src/TestingDemos/MaintenanceTestingDemo.o
 .text.TestResetGroundCommWDT
                0x00000000       0x9c ./src/TestingDemos/MaintenanceTestingDemo.o
 .text.TestIsGroundCommunicationWDTKick
                0x00000000       0xa8 ./src/TestingDemos/MaintenanceTestingDemo.o
 .text.TestMaintenanceMainLoop
                0x00000000      0x120 ./src/TestingDemos/MaintenanceTestingDemo.o
 .text.selectAndExecuteMaintenanceDemoTest
                0x00000000      0x15c ./src/TestingDemos/MaintenanceTestingDemo.o
 .text.MainMaintenanceTestBench
                0x00000000       0x40 ./src/TestingDemos/MaintenanceTestingDemo.o
 .debug_info    0x00000000      0x2ca ./src/TestingDemos/MaintenanceTestingDemo.o
 .debug_abbrev  0x00000000       0xdc ./src/TestingDemos/MaintenanceTestingDemo.o
 .debug_loc     0x00000000      0x134 ./src/TestingDemos/MaintenanceTestingDemo.o
 .debug_aranges
                0x00000000       0x50 ./src/TestingDemos/MaintenanceTestingDemo.o
 .debug_ranges  0x00000000       0x40 ./src/TestingDemos/MaintenanceTestingDemo.o
 .debug_line    0x00000000      0x2c2 ./src/TestingDemos/MaintenanceTestingDemo.o
 .debug_str     0x00000000      0x2d9 ./src/TestingDemos/MaintenanceTestingDemo.o
 .comment       0x00000000       0x71 ./src/TestingDemos/MaintenanceTestingDemo.o
 .ARM.attributes
                0x00000000       0x32 ./src/TestingDemos/MaintenanceTestingDemo.o
 .debug_frame   0x00000000       0xd4 ./src/TestingDemos/MaintenanceTestingDemo.o
 .text          0x00000000        0x0 ./src/TestingDemos/TelemetryTestingDemo.o
 .data          0x00000000        0x0 ./src/TestingDemos/TelemetryTestingDemo.o
 .bss           0x00000000        0x0 ./src/TestingDemos/TelemetryTestingDemo.o
 .text.MainTelemetryTestBench
                0x00000000       0x1c ./src/TestingDemos/TelemetryTestingDemo.o
 .debug_info    0x00000000       0x63 ./src/TestingDemos/TelemetryTestingDemo.o
 .debug_abbrev  0x00000000       0x46 ./src/TestingDemos/TelemetryTestingDemo.o
 .debug_loc     0x00000000       0x2c ./src/TestingDemos/TelemetryTestingDemo.o
 .debug_aranges
                0x00000000       0x20 ./src/TestingDemos/TelemetryTestingDemo.o
 .debug_ranges  0x00000000       0x10 ./src/TestingDemos/TelemetryTestingDemo.o
 .debug_line    0x00000000       0xb8 ./src/TestingDemos/TelemetryTestingDemo.o
 .debug_str     0x00000000      0x100 ./src/TestingDemos/TelemetryTestingDemo.o
 .comment       0x00000000       0x71 ./src/TestingDemos/TelemetryTestingDemo.o
 .ARM.attributes
                0x00000000       0x32 ./src/TestingDemos/TelemetryTestingDemo.o
 .debug_frame   0x00000000       0x28 ./src/TestingDemos/TelemetryTestingDemo.o
 .text          0x00000000        0x0 ./src/TestingDemos/TrxvuTestingDemo.o
 .data          0x00000000        0x0 ./src/TestingDemos/TrxvuTestingDemo.o
 .bss           0x00000000        0x0 ./src/TestingDemos/TrxvuTestingDemo.o
 .debug_info    0x00000000       0x79 ./src/TestingDemos/TrxvuTestingDemo.o
 .debug_abbrev  0x00000000       0x26 ./src/TestingDemos/TrxvuTestingDemo.o
 .debug_aranges
                0x00000000       0x18 ./src/TestingDemos/TrxvuTestingDemo.o
 .debug_line    0x00000000       0x1d ./src/TestingDemos/TrxvuTestingDemo.o
 .debug_str     0x00000000      0x147 ./src/TestingDemos/TrxvuTestingDemo.o
 .comment       0x00000000       0x71 ./src/TestingDemos/TrxvuTestingDemo.o
 .ARM.attributes
                0x00000000       0x32 ./src/TestingDemos/TrxvuTestingDemo.o
 .text          0x00000000        0x0 ./src/SubSystemModules/PowerManagment/EPS.o
 .text.print_byte_arr
                0x00000000       0xb0 ./src/SubSystemModules/PowerManagment/EPS.o
 .text.byte_arr_2_int16
                0x00000000       0x54 ./src/SubSystemModules/PowerManagment/EPS.o
 .text.i2c_write_read
                0x00000000       0xd8 ./src/SubSystemModules/PowerManagment/EPS.o
 .text.eps_i2c_comm_config
                0x00000000      0x178 ./src/SubSystemModules/PowerManagment/EPS.o
 .text.eps_i2c_comm
                0x00000000       0xf0 ./src/SubSystemModules/PowerManagment/EPS.o
 .text.eps_set_channels_off
                0x00000000       0x68 ./src/SubSystemModules/PowerManagment/EPS.o
 .text.eps_get_channel_state
                0x00000000       0x70 ./src/SubSystemModules/PowerManagment/EPS.o
 .text.eps_check_channel_state
                0x00000000       0x80 ./src/SubSystemModules/PowerManagment/EPS.o
 .text.RUN_EPS_I2C_COMM
                0x00000000       0x6c ./src/SubSystemModules/PowerManagment/EPS.o
 .text.RUN_EPS_CHAN_STAT
                0x00000000       0x80 ./src/SubSystemModules/PowerManagment/EPS.o
 .text.UpdateAlpha
                0x00000000       0x9c ./src/SubSystemModules/PowerManagment/EPS.o
 .text.UpdateThresholdVoltages
                0x00000000      0x1f4 ./src/SubSystemModules/PowerManagment/EPS.o
 .text.RestoreDefaultAlpha
                0x00000000       0x3c ./src/SubSystemModules/PowerManagment/EPS.o
 .text.RestoreDefaultThresholdVoltages
                0x00000000       0x58 ./src/SubSystemModules/PowerManagment/EPS.o
 .text          0x00000000        0x0 ./src/SubSystemModules/PowerManagment/EPSOperationModes.o
 .data          0x00000000        0x0 ./src/SubSystemModules/PowerManagment/EPSOperationModes.o
 .text.GetSystemChannelState
                0x00000000       0x24 ./src/SubSystemModules/PowerManagment/EPSOperationModes.o
 .text.EpsGetLowVoltageFlag
                0x00000000       0x24 ./src/SubSystemModules/PowerManagment/EPSOperationModes.o
 COMMON         0x00000000        0x1 ./src/SubSystemModules/PowerManagment/EPSOperationModes.o
 .text          0x00000000        0x0 ./src/SubSystemModules/Payload/payload_drivers.o
 .data          0x00000000        0x0 ./src/SubSystemModules/Payload/payload_drivers.o
 .bss           0x00000000        0x0 ./src/SubSystemModules/Payload/payload_drivers.o
 .text.payloadSoftReset
                0x00000000       0x48 ./src/SubSystemModules/Payload/payload_drivers.o
 .text          0x00000000        0x0 ./src/SubSystemModules/Maintenance/Log.o
 .text.__logg   0x00000000       0x54 ./src/SubSystemModules/Maintenance/Log.o
 .text          0x00000000        0x0 ./src/SubSystemModules/Maintenance/Maintenance.o
 .data          0x00000000        0x0 ./src/SubSystemModules/Maintenance/Maintenance.o
 .bss           0x00000000        0x0 ./src/SubSystemModules/Maintenance/Maintenance.o
 .text.CheckExecTimeFromFRAM
                0x00000000       0x70 ./src/SubSystemModules/Maintenance/Maintenance.o
 .text.SetGsWdtKickTime
                0x00000000       0x38 ./src/SubSystemModules/Maintenance/Maintenance.o
 .text          0x00000000        0x0 ./src/SubSystemModules/Housekepping/Dump.o
 .data          0x00000000        0x0 ./src/SubSystemModules/Housekepping/Dump.o
 .text.c_fileReadAndSend
                0x00000000      0x444 ./src/SubSystemModules/Housekepping/Dump.o
 .text          0x00000000        0x0 ./src/SubSystemModules/Housekepping/TelemetryCollector.o
 .data          0x00000000        0x0 ./src/SubSystemModules/Housekepping/TelemetryCollector.o
 .text          0x00000000        0x0 ./src/SubSystemModules/Communication/SubsystemCommands/EPS_Commands.o
 .data          0x00000000        0x0 ./src/SubSystemModules/Communication/SubsystemCommands/EPS_Commands.o
 .bss           0x00000000        0x0 ./src/SubSystemModules/Communication/SubsystemCommands/EPS_Commands.o
 .text.CMD_EPS_NOP
                0x00000000       0x2c ./src/SubSystemModules/Communication/SubsystemCommands/EPS_Commands.o
 .text.CMD_GetEpsParameter
                0x00000000       0x50 ./src/SubSystemModules/Communication/SubsystemCommands/EPS_Commands.o
 .text.CMD_SetEpsParemeter
                0x00000000       0x50 ./src/SubSystemModules/Communication/SubsystemCommands/EPS_Commands.o
 .text.CMD_ResetParameter
                0x00000000       0x50 ./src/SubSystemModules/Communication/SubsystemCommands/EPS_Commands.o
 .text.CMD_ResetConfig
                0x00000000       0x2c ./src/SubSystemModules/Communication/SubsystemCommands/EPS_Commands.o
 .text.CMD_LoadConfig
                0x00000000       0x2c ./src/SubSystemModules/Communication/SubsystemCommands/EPS_Commands.o
 .text.CMD_SaveConfig
                0x00000000       0x2c ./src/SubSystemModules/Communication/SubsystemCommands/EPS_Commands.o
 .text.CMD_SolarPanelWake
                0x00000000       0x4c ./src/SubSystemModules/Communication/SubsystemCommands/EPS_Commands.o
 .text.CMD_SolarPanelSleep
                0x00000000       0x4c ./src/SubSystemModules/Communication/SubsystemCommands/EPS_Commands.o
 .text.CMD_GetSolarPanelState
                0x00000000       0x48 ./src/SubSystemModules/Communication/SubsystemCommands/EPS_Commands.o
 .text          0x00000000        0x0 ./src/SubSystemModules/Communication/SubsystemCommands/FS_Commands.o
 .data          0x00000000        0x0 ./src/SubSystemModules/Communication/SubsystemCommands/FS_Commands.o
 .bss           0x00000000        0x0 ./src/SubSystemModules/Communication/SubsystemCommands/FS_Commands.o
 .text          0x00000000        0x0 ./src/SubSystemModules/Communication/SubsystemCommands/Maintanence_Commands.o
 .data          0x00000000        0x0 ./src/SubSystemModules/Communication/SubsystemCommands/Maintanence_Commands.o
 .bss           0x00000000        0x0 ./src/SubSystemModules/Communication/SubsystemCommands/Maintanence_Commands.o
 .text.CMD_FRAM_GetDeviceID
                0x00000000       0x58 ./src/SubSystemModules/Communication/SubsystemCommands/Maintanence_Commands.o
 .text.CMD_SoftTRXVU_ComponenetReset
                0x00000000       0x74 ./src/SubSystemModules/Communication/SubsystemCommands/Maintanence_Commands.o
 .text.CMD_HardTRXVU_ComponenetReset
                0x00000000       0x74 ./src/SubSystemModules/Communication/SubsystemCommands/Maintanence_Commands.o
 .text          0x00000000        0x0 ./src/SubSystemModules/Communication/SubsystemCommands/TRXVU_Commands.o
 .data          0x00000000        0x0 ./src/SubSystemModules/Communication/SubsystemCommands/TRXVU_Commands.o
 .bss           0x00000000        0x0 ./src/SubSystemModules/Communication/SubsystemCommands/TRXVU_Commands.o
 .text.CMD_ForceDumpAbort
                0x00000000       0x24 ./src/SubSystemModules/Communication/SubsystemCommands/TRXVU_Commands.o
 .text.CMD_SetBeaconInterval
                0x00000000       0x88 ./src/SubSystemModules/Communication/SubsystemCommands/TRXVU_Commands.o
 .text          0x00000000        0x0 ./src/SubSystemModules/Communication/AckHandler.o
 .data          0x00000000        0x0 ./src/SubSystemModules/Communication/AckHandler.o
 .bss           0x00000000        0x0 ./src/SubSystemModules/Communication/AckHandler.o
 .text.SendErrorMSG_IfError
                0x00000000       0x6c ./src/SubSystemModules/Communication/AckHandler.o
 .text          0x00000000        0x0 ./src/SubSystemModules/Communication/ActUponCommand.o
 .data          0x00000000        0x0 ./src/SubSystemModules/Communication/ActUponCommand.o
 .bss           0x00000000        0x0 ./src/SubSystemModules/Communication/ActUponCommand.o
 .text          0x00000000        0x0 ./src/SubSystemModules/Communication/Beacon.o
 .text          0x00000000        0x0 ./src/SubSystemModules/Communication/CommandDictionary.o
 .data          0x00000000        0x0 ./src/SubSystemModules/Communication/CommandDictionary.o
 .bss           0x00000000        0x0 ./src/SubSystemModules/Communication/CommandDictionary.o
 .text          0x00000000        0x0 ./src/SubSystemModules/Communication/SatCommandHandler.o
 .data          0x00000000        0x0 ./src/SubSystemModules/Communication/SatCommandHandler.o
 .bss           0x00000000        0x0 ./src/SubSystemModules/Communication/SatCommandHandler.o
 .text          0x00000000        0x0 ./src/SubSystemModules/Communication/SatDataTx.o
 .data          0x00000000        0x0 ./src/SubSystemModules/Communication/SatDataTx.o
 .text.IsTransmitting
                0x00000000       0x64 ./src/SubSystemModules/Communication/SatDataTx.o
 .text.GetTrxvuBitrate
                0x00000000       0x74 ./src/SubSystemModules/Communication/SatDataTx.o
 .text          0x00000000        0x0 ./src/SubSystemModules/Communication/TRXVU.o
 .text          0x00000000        0x0 ./src/SubSystemModules/Communication/Transponder.o
 .data          0x00000000        0x0 ./src/SubSystemModules/Communication/Transponder.o
 .text.set_transonder_mode_i2c
                0x00000000       0xcc ./src/SubSystemModules/Communication/Transponder.o
 .text          0x00000000        0x0 ./src/InitSystem.o
 .data          0x00000000        0x0 ./src/InitSystem.o
 .bss           0x00000000        0x4 ./src/InitSystem.o
 .text.IntializeFRAM
                0x00000000       0x7c ./src/InitSystem.o
 .text.WriteDefaultValuesToFRAM
                0x00000000      0x30c ./src/InitSystem.o
 .text.ReadDefaultValuesToFRAM
                0x00000000      0x234 ./src/InitSystem.o
 .text          0x00000000        0x0 ./src/TLM_management.o
 .data          0x00000000        0x0 ./src/TLM_management.o
 .bss           0x00000000        0x0 ./src/TLM_management.o
 .text.reset_FRAM_FS
                0x00000000       0x4c ./src/TLM_management.o
 .text.TLMfile  0x00000000       0x64 ./src/TLM_management.o
 .text.deleteDir
                0x00000000       0xfc ./src/TLM_management.o
 .text.f_managed_releaseFS
                0x00000000       0x18 ./src/TLM_management.o
 .text.c_fileReset
                0x00000000       0xd0 ./src/TLM_management.o
 .text.fileWrite
                0x00000000       0x6c ./src/TLM_management.o
 .text.fileRead
                0x00000000      0x180 ./src/TLM_management.o
 .text.c_fileRead
                0x00000000      0x3b8 ./src/TLM_management.o
 .text.print_file
                0x00000000      0x110 ./src/TLM_management.o
 .text          0x00000000        0x0 ./src/main.o
 .data          0x00000000        0x0 ./src/main.o
 .bss           0x00000000        0x0 ./src/main.o
 .text          0x00000000        0x0 C:/Users/ground/Documents/GitHub/tevel2/GlobusSatProject/..//hal/hal/lib\libHALD.a(SPI.o)
 .text          0x00000000        0x0 C:/Users/ground/Documents/GitHub/tevel2/GlobusSatProject/..//hal/hal/lib\libHALD.a(I2C.o)
 .text.I2C_blockBus
                0x00000000       0x50 C:/Users/ground/Documents/GitHub/tevel2/GlobusSatProject/..//hal/hal/lib\libHALD.a(I2C.o)
 .text.I2C_releaseBus
                0x00000000       0x2c C:/Users/ground/Documents/GitHub/tevel2/GlobusSatProject/..//hal/hal/lib\libHALD.a(I2C.o)
 .text.I2C_getDriverState
                0x00000000       0x28 C:/Users/ground/Documents/GitHub/tevel2/GlobusSatProject/..//hal/hal/lib\libHALD.a(I2C.o)
 .text.I2C_getCurrentTransferStatus
                0x00000000       0x28 C:/Users/ground/Documents/GitHub/tevel2/GlobusSatProject/..//hal/hal/lib\libHALD.a(I2C.o)
 .text          0x00000000        0x0 C:/Users/ground/Documents/GitHub/tevel2/GlobusSatProject/..//hal/hal/lib\libHALD.a(FRAM.o)
 .text.FRAM_writeAndVerifyPacket
                0x00000000       0x8c C:/Users/ground/Documents/GitHub/tevel2/GlobusSatProject/..//hal/hal/lib\libHALD.a(FRAM.o)
 .text.FRAM_writeAndVerify
                0x00000000      0x1fc C:/Users/ground/Documents/GitHub/tevel2/GlobusSatProject/..//hal/hal/lib\libHALD.a(FRAM.o)
 .text.FRAM_protectBlocks
                0x00000000      0x238 C:/Users/ground/Documents/GitHub/tevel2/GlobusSatProject/..//hal/hal/lib\libHALD.a(FRAM.o)
 .text.FRAM_getProtectedBlocks
                0x00000000      0x130 C:/Users/ground/Documents/GitHub/tevel2/GlobusSatProject/..//hal/hal/lib\libHALD.a(FRAM.o)
 .text.FRAM_getDeviceID
                0x00000000      0x164 C:/Users/ground/Documents/GitHub/tevel2/GlobusSatProject/..//hal/hal/lib\libHALD.a(FRAM.o)
 .text.FRAM_getMaxAddress
                0x00000000       0x20 C:/Users/ground/Documents/GitHub/tevel2/GlobusSatProject/..//hal/hal/lib\libHALD.a(FRAM.o)
 .text          0x00000000        0x0 C:/Users/ground/Documents/GitHub/tevel2/GlobusSatProject/..//hal/hal/lib\libHALD.a(Time.o)
 .text.Time_convertTimeToEpoch
                0x00000000       0xd0 C:/Users/ground/Documents/GitHub/tevel2/GlobusSatProject/..//hal/hal/lib\libHALD.a(Time.o)
 .text.Time_convertEpochToRTT
                0x00000000       0x68 C:/Users/ground/Documents/GitHub/tevel2/GlobusSatProject/..//hal/hal/lib\libHALD.a(Time.o)
 .text.Time_convertRTTToEpoch
                0x00000000       0x50 C:/Users/ground/Documents/GitHub/tevel2/GlobusSatProject/..//hal/hal/lib\libHALD.a(Time.o)
 .text.Time_getUptimeSecondsFromISR
                0x00000000       0x28 C:/Users/ground/Documents/GitHub/tevel2/GlobusSatProject/..//hal/hal/lib\libHALD.a(Time.o)
 .text.Time_setSyncInterval
                0x00000000       0x58 C:/Users/ground/Documents/GitHub/tevel2/GlobusSatProject/..//hal/hal/lib\libHALD.a(Time.o)
 .text.Time_diff
                0x00000000      0x26c C:/Users/ground/Documents/GitHub/tevel2/GlobusSatProject/..//hal/hal/lib\libHALD.a(Time.o)
 .text.Time_isRTCworking
                0x00000000       0x24 C:/Users/ground/Documents/GitHub/tevel2/GlobusSatProject/..//hal/hal/lib\libHALD.a(Time.o)
 .text          0x00000000        0x0 C:/Users/ground/Documents/GitHub/tevel2/GlobusSatProject/..//hal/hal/lib\libHALD.a(WatchDogTimerNoOS.o)
 .data          0x00000000        0x0 C:/Users/ground/Documents/GitHub/tevel2/GlobusSatProject/..//hal/hal/lib\libHALD.a(WatchDogTimerNoOS.o)
 .bss           0x00000000        0x0 C:/Users/ground/Documents/GitHub/tevel2/GlobusSatProject/..//hal/hal/lib\libHALD.a(WatchDogTimerNoOS.o)
 .text          0x00000000        0x0 C:/Users/ground/Documents/GitHub/tevel2/GlobusSatProject/..//hal/hal/lib\libHALD.a(RTT.o)
 .data          0x00000000        0x0 C:/Users/ground/Documents/GitHub/tevel2/GlobusSatProject/..//hal/hal/lib\libHALD.a(RTT.o)
 .bss           0x00000000        0x0 C:/Users/ground/Documents/GitHub/tevel2/GlobusSatProject/..//hal/hal/lib\libHALD.a(RTT.o)
 .text.RTT_GetStatus
                0x00000000       0x24 C:/Users/ground/Documents/GitHub/tevel2/GlobusSatProject/..//hal/hal/lib\libHALD.a(RTT.o)
 .text.RTT_SetAlarm
                0x00000000       0x7c C:/Users/ground/Documents/GitHub/tevel2/GlobusSatProject/..//hal/hal/lib\libHALD.a(RTT.o)
 .text.RTT_GetAlarm
                0x00000000       0x48 C:/Users/ground/Documents/GitHub/tevel2/GlobusSatProject/..//hal/hal/lib\libHALD.a(RTT.o)
 .text.RTT_SetAlarmInterrupt
                0x00000000       0x44 C:/Users/ground/Documents/GitHub/tevel2/GlobusSatProject/..//hal/hal/lib\libHALD.a(RTT.o)
 .text.RTT_test
                0x00000000       0x50 C:/Users/ground/Documents/GitHub/tevel2/GlobusSatProject/..//hal/hal/lib\libHALD.a(RTT.o)
 .text          0x00000000        0x0 C:/Users/ground/Documents/GitHub/tevel2/GlobusSatProject/..//hal/hal/lib\libHALD.a(RTC.o)
 .bss           0x00000000        0x0 C:/Users/ground/Documents/GitHub/tevel2/GlobusSatProject/..//hal/hal/lib\libHALD.a(RTC.o)
 .rodata        0x00000000       0x84 C:/Users/ground/Documents/GitHub/tevel2/GlobusSatProject/..//hal/hal/lib\libHALD.a(RTC.o)
 .text.RTC_printSeconds
                0x00000000       0xdc C:/Users/ground/Documents/GitHub/tevel2/GlobusSatProject/..//hal/hal/lib\libHALD.a(RTC.o)
 .text.RTC_testGetSet
                0x00000000      0x140 C:/Users/ground/Documents/GitHub/tevel2/GlobusSatProject/..//hal/hal/lib\libHALD.a(RTC.o)
 .text.RTC_testSeconds
                0x00000000       0xb4 C:/Users/ground/Documents/GitHub/tevel2/GlobusSatProject/..//hal/hal/lib\libHALD.a(RTC.o)
 .text.RTC_getTemperature
                0x00000000      0x118 C:/Users/ground/Documents/GitHub/tevel2/GlobusSatProject/..//hal/hal/lib\libHALD.a(RTC.o)
 .text          0x00000000        0x0 C:/Users/ground/Documents/GitHub/tevel2/GlobusSatProject/..//hal/hal/lib\libHALD.a(WatchDogTimerOS.o)
 .data          0x00000000        0x0 C:/Users/ground/Documents/GitHub/tevel2/GlobusSatProject/..//hal/hal/lib\libHALD.a(WatchDogTimerOS.o)
 .text.WDT_stopWatchdogKickTask
                0x00000000       0x3c C:/Users/ground/Documents/GitHub/tevel2/GlobusSatProject/..//hal/hal/lib\libHALD.a(WatchDogTimerOS.o)
 .text          0x00000000        0x0 C:/Users/ground/Documents/GitHub/tevel2/GlobusSatProject/..//hal/hal/lib\libHALD.a(util.o)
 .data          0x00000000        0x0 C:/Users/ground/Documents/GitHub/tevel2/GlobusSatProject/..//hal/hal/lib\libHALD.a(util.o)
 .bss           0x00000000        0x0 C:/Users/ground/Documents/GitHub/tevel2/GlobusSatProject/..//hal/hal/lib\libHALD.a(util.o)
 .text.PrintChar
                0x00000000       0x58 C:/Users/ground/Documents/GitHub/tevel2/GlobusSatProject/..//hal/hal/lib\libHALD.a(util.o)
 .rodata        0x00000000       0xcc C:/Users/ground/Documents/GitHub/tevel2/GlobusSatProject/..//hal/hal/lib\libHALD.a(util.o)
 .text.UTIL_DbguDumpMemory
                0x00000000      0x254 C:/Users/ground/Documents/GitHub/tevel2/GlobusSatProject/..//hal/hal/lib\libHALD.a(util.o)
 .text.UTIL_DbguDumpArrayBytes
                0x00000000       0x70 C:/Users/ground/Documents/GitHub/tevel2/GlobusSatProject/..//hal/hal/lib\libHALD.a(util.o)
 .text.UTIL_DbguGetInteger
                0x00000000      0x168 C:/Users/ground/Documents/GitHub/tevel2/GlobusSatProject/..//hal/hal/lib\libHALD.a(util.o)
 .text.UTIL_DbguGetString
                0x00000000       0xf0 C:/Users/ground/Documents/GitHub/tevel2/GlobusSatProject/..//hal/hal/lib\libHALD.a(util.o)
 .text.UTIL_DbguGetIntegerMinMax
                0x00000000       0xa4 C:/Users/ground/Documents/GitHub/tevel2/GlobusSatProject/..//hal/hal/lib\libHALD.a(util.o)
 .text.UTIL_DbguGetHexa32
                0x00000000      0x174 C:/Users/ground/Documents/GitHub/tevel2/GlobusSatProject/..//hal/hal/lib\libHALD.a(util.o)
 .debug_info    0x00000000      0x2cc C:/Users/ground/Documents/GitHub/tevel2/GlobusSatProject/..//hal/hal/lib\libHALD.a(util.o)
 .debug_abbrev  0x00000000       0xbf C:/Users/ground/Documents/GitHub/tevel2/GlobusSatProject/..//hal/hal/lib\libHALD.a(util.o)
 .debug_loc     0x00000000      0x134 C:/Users/ground/Documents/GitHub/tevel2/GlobusSatProject/..//hal/hal/lib\libHALD.a(util.o)
 .debug_aranges
                0x00000000       0x50 C:/Users/ground/Documents/GitHub/tevel2/GlobusSatProject/..//hal/hal/lib\libHALD.a(util.o)
 .debug_ranges  0x00000000       0x40 C:/Users/ground/Documents/GitHub/tevel2/GlobusSatProject/..//hal/hal/lib\libHALD.a(util.o)
 .debug_line    0x00000000      0x1ec C:/Users/ground/Documents/GitHub/tevel2/GlobusSatProject/..//hal/hal/lib\libHALD.a(util.o)
 .debug_str     0x00000000      0x1ed C:/Users/ground/Documents/GitHub/tevel2/GlobusSatProject/..//hal/hal/lib\libHALD.a(util.o)
 .comment       0x00000000       0x71 C:/Users/ground/Documents/GitHub/tevel2/GlobusSatProject/..//hal/hal/lib\libHALD.a(util.o)
 .ARM.attributes
                0x00000000       0x32 C:/Users/ground/Documents/GitHub/tevel2/GlobusSatProject/..//hal/hal/lib\libHALD.a(util.o)
 .debug_frame   0x00000000       0xd8 C:/Users/ground/Documents/GitHub/tevel2/GlobusSatProject/..//hal/hal/lib\libHALD.a(util.o)
 .text          0x00000000        0x0 C:/Users/ground/Documents/GitHub/tevel2/GlobusSatProject/..//hal/hal/lib\libHALD.a(LED.o)
 .data          0x00000000        0x0 C:/Users/ground/Documents/GitHub/tevel2/GlobusSatProject/..//hal/hal/lib\libHALD.a(LED.o)
 .text.uSdelay  0x00000000       0x88 C:/Users/ground/Documents/GitHub/tevel2/GlobusSatProject/..//hal/hal/lib\libHALD.a(LED.o)
 .text.LED_start
                0x00000000       0x1c C:/Users/ground/Documents/GitHub/tevel2/GlobusSatProject/..//hal/hal/lib\libHALD.a(LED.o)
 .text.LED_wave
                0x00000000       0xd0 C:/Users/ground/Documents/GitHub/tevel2/GlobusSatProject/..//hal/hal/lib\libHALD.a(LED.o)
 .text.LED_waveReverse
                0x00000000       0xd0 C:/Users/ground/Documents/GitHub/tevel2/GlobusSatProject/..//hal/hal/lib\libHALD.a(LED.o)
 .text          0x00000000        0x0 C:/Users/ground/Documents/GitHub/tevel2/GlobusSatProject/..//hal/hcc/lib\libHCCD.a(fat_m.o)
 .data          0x00000000        0x0 C:/Users/ground/Documents/GitHub/tevel2/GlobusSatProject/..//hal/hcc/lib\libHCCD.a(fat_m.o)
 .bss           0x00000000        0x0 C:/Users/ground/Documents/GitHub/tevel2/GlobusSatProject/..//hal/hcc/lib\libHCCD.a(fat_m.o)
 .text.fm_initvolume_nonsafe
                0x00000000       0x70 C:/Users/ground/Documents/GitHub/tevel2/GlobusSatProject/..//hal/hcc/lib\libHCCD.a(fat_m.o)
 .text.fm_createdriver
                0x00000000       0x70 C:/Users/ground/Documents/GitHub/tevel2/GlobusSatProject/..//hal/hcc/lib\libHCCD.a(fat_m.o)
 .text.fm_initvolumepartition
                0x00000000       0x70 C:/Users/ground/Documents/GitHub/tevel2/GlobusSatProject/..//hal/hcc/lib\libHCCD.a(fat_m.o)
 .text.fm_initvolumepartition_nonsafe
                0x00000000       0x70 C:/Users/ground/Documents/GitHub/tevel2/GlobusSatProject/..//hal/hcc/lib\libHCCD.a(fat_m.o)
 .text.fm_createpartition
                0x00000000       0x70 C:/Users/ground/Documents/GitHub/tevel2/GlobusSatProject/..//hal/hcc/lib\libHCCD.a(fat_m.o)
 .text.fm_getpartition
                0x00000000       0x68 C:/Users/ground/Documents/GitHub/tevel2/GlobusSatProject/..//hal/hcc/lib\libHCCD.a(fat_m.o)
 .text.fm_checkvolume
                0x00000000       0x60 C:/Users/ground/Documents/GitHub/tevel2/GlobusSatProject/..//hal/hcc/lib\libHCCD.a(fat_m.o)
 .text.fm_releasedriver
                0x00000000       0x54 C:/Users/ground/Documents/GitHub/tevel2/GlobusSatProject/..//hal/hcc/lib\libHCCD.a(fat_m.o)
 .text.fm_get_volume_count
                0x00000000       0x58 C:/Users/ground/Documents/GitHub/tevel2/GlobusSatProject/..//hal/hcc/lib\libHCCD.a(fat_m.o)
 .text.fm_get_volume_list
                0x00000000       0x60 C:/Users/ground/Documents/GitHub/tevel2/GlobusSatProject/..//hal/hcc/lib\libHCCD.a(fat_m.o)
 .text.fm_getcwd
                0x00000000       0x68 C:/Users/ground/Documents/GitHub/tevel2/GlobusSatProject/..//hal/hcc/lib\libHCCD.a(fat_m.o)
 .text.fm_getdcwd
                0x00000000       0x70 C:/Users/ground/Documents/GitHub/tevel2/GlobusSatProject/..//hal/hcc/lib\libHCCD.a(fat_m.o)
 .text.fm_chdrive
                0x00000000       0x60 C:/Users/ground/Documents/GitHub/tevel2/GlobusSatProject/..//hal/hcc/lib\libHCCD.a(fat_m.o)
 .text.fm_chdir
                0x00000000       0x60 C:/Users/ground/Documents/GitHub/tevel2/GlobusSatProject/..//hal/hcc/lib\libHCCD.a(fat_m.o)
 .text.fm_rmdir
                0x00000000       0x60 C:/Users/ground/Documents/GitHub/tevel2/GlobusSatProject/..//hal/hcc/lib\libHCCD.a(fat_m.o)
 .text.fm_findfirst
                0x00000000       0x68 C:/Users/ground/Documents/GitHub/tevel2/GlobusSatProject/..//hal/hcc/lib\libHCCD.a(fat_m.o)
 .text.fm_findnext
                0x00000000       0x60 C:/Users/ground/Documents/GitHub/tevel2/GlobusSatProject/..//hal/hcc/lib\libHCCD.a(fat_m.o)
 .text.fm_move  0x00000000       0x68 C:/Users/ground/Documents/GitHub/tevel2/GlobusSatProject/..//hal/hcc/lib\libHCCD.a(fat_m.o)
 .text.fm_abortclose
                0x00000000       0x60 C:/Users/ground/Documents/GitHub/tevel2/GlobusSatProject/..//hal/hcc/lib\libHCCD.a(fat_m.o)
 .text.fm_flush_filebuffer
                0x00000000       0x60 C:/Users/ground/Documents/GitHub/tevel2/GlobusSatProject/..//hal/hcc/lib\libHCCD.a(fat_m.o)
 .text.fm_open_nonsafe
                0x00000000       0x68 C:/Users/ground/Documents/GitHub/tevel2/GlobusSatProject/..//hal/hcc/lib\libHCCD.a(fat_m.o)
 .text.fm_open_pos
                0x00000000       0x70 C:/Users/ground/Documents/GitHub/tevel2/GlobusSatProject/..//hal/hcc/lib\libHCCD.a(fat_m.o)
 .text.fm_tell  0x00000000       0x60 C:/Users/ground/Documents/GitHub/tevel2/GlobusSatProject/..//hal/hcc/lib\libHCCD.a(fat_m.o)
 .text.fm_getc  0x00000000       0x60 C:/Users/ground/Documents/GitHub/tevel2/GlobusSatProject/..//hal/hcc/lib\libHCCD.a(fat_m.o)
 .text.fm_putc  0x00000000       0x68 C:/Users/ground/Documents/GitHub/tevel2/GlobusSatProject/..//hal/hcc/lib\libHCCD.a(fat_m.o)
 .text.fm_rewind
                0x00000000       0x60 C:/Users/ground/Documents/GitHub/tevel2/GlobusSatProject/..//hal/hcc/lib\libHCCD.a(fat_m.o)
 .text.fm_eof   0x00000000       0x60 C:/Users/ground/Documents/GitHub/tevel2/GlobusSatProject/..//hal/hcc/lib\libHCCD.a(fat_m.o)
 .text.fm_gettimedate
                0x00000000       0x70 C:/Users/ground/Documents/GitHub/tevel2/GlobusSatProject/..//hal/hcc/lib\libHCCD.a(fat_m.o)
 .text.fm_stat  0x00000000       0x68 C:/Users/ground/Documents/GitHub/tevel2/GlobusSatProject/..//hal/hcc/lib\libHCCD.a(fat_m.o)
 .text.fm_fstat
                0x00000000       0x68 C:/Users/ground/Documents/GitHub/tevel2/GlobusSatProject/..//hal/hcc/lib\libHCCD.a(fat_m.o)
 .text.fm_settimedate
                0x00000000       0x74 C:/Users/ground/Documents/GitHub/tevel2/GlobusSatProject/..//hal/hcc/lib\libHCCD.a(fat_m.o)
 .text.fm_getattr
                0x00000000       0x68 C:/Users/ground/Documents/GitHub/tevel2/GlobusSatProject/..//hal/hcc/lib\libHCCD.a(fat_m.o)
 .text.fm_setattr
                0x00000000       0x70 C:/Users/ground/Documents/GitHub/tevel2/GlobusSatProject/..//hal/hcc/lib\libHCCD.a(fat_m.o)
 .text.fm_getlabel
                0x00000000       0x70 C:/Users/ground/Documents/GitHub/tevel2/GlobusSatProject/..//hal/hcc/lib\libHCCD.a(fat_m.o)
 .text.fm_setlabel
                0x00000000       0x68 C:/Users/ground/Documents/GitHub/tevel2/GlobusSatProject/..//hal/hcc/lib\libHCCD.a(fat_m.o)
 .text.fm_truncate
                0x00000000       0x68 C:/Users/ground/Documents/GitHub/tevel2/GlobusSatProject/..//hal/hcc/lib\libHCCD.a(fat_m.o)
 .text.fm_get_oem
                0x00000000       0x70 C:/Users/ground/Documents/GitHub/tevel2/GlobusSatProject/..//hal/hcc/lib\libHCCD.a(fat_m.o)
 .text.fm_ftruncate
                0x00000000       0x68 C:/Users/ground/Documents/GitHub/tevel2/GlobusSatProject/..//hal/hcc/lib\libHCCD.a(fat_m.o)
 .text.fm_seteof
                0x00000000       0x60 C:/Users/ground/Documents/GitHub/tevel2/GlobusSatProject/..//hal/hcc/lib\libHCCD.a(fat_m.o)
 .text          0x00000000        0x0 C:/Users/ground/Documents/GitHub/tevel2/GlobusSatProject/..//hal/hcc/lib\libHCCD.a(fat.o)
 .data          0x00000000        0x0 C:/Users/ground/Documents/GitHub/tevel2/GlobusSatProject/..//hal/hcc/lib\libHCCD.a(fat.o)
 .bss           0x00000000        0x0 C:/Users/ground/Documents/GitHub/tevel2/GlobusSatProject/..//hal/hcc/lib\libHCCD.a(fat.o)
 .text._f_cmp_wname
                0x00000000      0x274 C:/Users/ground/Documents/GitHub/tevel2/GlobusSatProject/..//hal/hcc/lib\libHCCD.a(fat.o)
 .text._f_to_string
                0x00000000      0x130 C:/Users/ground/Documents/GitHub/tevel2/GlobusSatProject/..//hal/hcc/lib\libHCCD.a(fat.o)
 .text._f_findfilewc
                0x00000000      0x278 C:/Users/ground/Documents/GitHub/tevel2/GlobusSatProject/..//hal/hcc/lib\libHCCD.a(fat.o)
 .text._f_getfilename
                0x00000000      0x20c C:/Users/ground/Documents/GitHub/tevel2/GlobusSatProject/..//hal/hcc/lib\libHCCD.a(fat.o)
 .text.fn_getcwd
                0x00000000      0x1e8 C:/Users/ground/Documents/GitHub/tevel2/GlobusSatProject/..//hal/hcc/lib\libHCCD.a(fat.o)
 .text.fn_findfirst
                0x00000000      0x13c C:/Users/ground/Documents/GitHub/tevel2/GlobusSatProject/..//hal/hcc/lib\libHCCD.a(fat.o)
 .text.fn_findnext
                0x00000000      0x360 C:/Users/ground/Documents/GitHub/tevel2/GlobusSatProject/..//hal/hcc/lib\libHCCD.a(fat.o)
 .text.fn_chdir
                0x00000000      0x240 C:/Users/ground/Documents/GitHub/tevel2/GlobusSatProject/..//hal/hcc/lib\libHCCD.a(fat.o)
 .text.fn_open_nonsafe
                0x00000000       0x44 C:/Users/ground/Documents/GitHub/tevel2/GlobusSatProject/..//hal/hcc/lib\libHCCD.a(fat.o)
 .text.fn_open_pos
                0x00000000       0x48 C:/Users/ground/Documents/GitHub/tevel2/GlobusSatProject/..//hal/hcc/lib\libHCCD.a(fat.o)
 .text.fn_settimedate
                0x00000000      0x324 C:/Users/ground/Documents/GitHub/tevel2/GlobusSatProject/..//hal/hcc/lib\libHCCD.a(fat.o)
 .text.fn_gettimedate
                0x00000000      0x1bc C:/Users/ground/Documents/GitHub/tevel2/GlobusSatProject/..//hal/hcc/lib\libHCCD.a(fat.o)
 .text.fn_stat  0x00000000      0x26c C:/Users/ground/Documents/GitHub/tevel2/GlobusSatProject/..//hal/hcc/lib\libHCCD.a(fat.o)
 .text.fn_getattr
                0x00000000      0x17c C:/Users/ground/Documents/GitHub/tevel2/GlobusSatProject/..//hal/hcc/lib\libHCCD.a(fat.o)
 .text.fn_setattr
                0x00000000      0x328 C:/Users/ground/Documents/GitHub/tevel2/GlobusSatProject/..//hal/hcc/lib\libHCCD.a(fat.o)
 .text.fn_rmdir
                0x00000000      0x5ac C:/Users/ground/Documents/GitHub/tevel2/GlobusSatProject/..//hal/hcc/lib\libHCCD.a(fat.o)
 .text.fn_getlabel
                0x00000000      0x39c C:/Users/ground/Documents/GitHub/tevel2/GlobusSatProject/..//hal/hcc/lib\libHCCD.a(fat.o)
 .text.fn_setlabel
                0x00000000      0x574 C:/Users/ground/Documents/GitHub/tevel2/GlobusSatProject/..//hal/hcc/lib\libHCCD.a(fat.o)
 .text.fn_truncate
                0x00000000      0x7b4 C:/Users/ground/Documents/GitHub/tevel2/GlobusSatProject/..//hal/hcc/lib\libHCCD.a(fat.o)
 .text          0x00000000        0x0 C:/Users/ground/Documents/GitHub/tevel2/GlobusSatProject/..//hal/hcc/lib\libHCCD.a(fat_common.o)
 .data          0x00000000        0x0 C:/Users/ground/Documents/GitHub/tevel2/GlobusSatProject/..//hal/hcc/lib\libHCCD.a(fat_common.o)
 .text.fn_start
                0x00000000       0x1c C:/Users/ground/Documents/GitHub/tevel2/GlobusSatProject/..//hal/hcc/lib\libHCCD.a(fat_common.o)
 .text.fn_stop  0x00000000       0x1c C:/Users/ground/Documents/GitHub/tevel2/GlobusSatProject/..//hal/hcc/lib\libHCCD.a(fat_common.o)
 .text._f_ioctl
                0x00000000       0x84 C:/Users/ground/Documents/GitHub/tevel2/GlobusSatProject/..//hal/hcc/lib\libHCCD.a(fat_common.o)
 .text._f_ioctl_endofdelete
                0x00000000       0x88 C:/Users/ground/Documents/GitHub/tevel2/GlobusSatProject/..//hal/hcc/lib\libHCCD.a(fat_common.o)
 .text._f_ioctl_multiplesectorerase
                0x00000000       0x5c C:/Users/ground/Documents/GitHub/tevel2/GlobusSatProject/..//hal/hcc/lib\libHCCD.a(fat_common.o)
 .text.fn_getpartition
                0x00000000      0x514 C:/Users/ground/Documents/GitHub/tevel2/GlobusSatProject/..//hal/hcc/lib\libHCCD.a(fat_common.o)
 .text.fn_initvolume_nonsafe
                0x00000000      0x14c C:/Users/ground/Documents/GitHub/tevel2/GlobusSatProject/..//hal/hcc/lib\libHCCD.a(fat_common.o)
 .text.fn_initvolumepartition_nonsafe
                0x00000000       0xac C:/Users/ground/Documents/GitHub/tevel2/GlobusSatProject/..//hal/hcc/lib\libHCCD.a(fat_common.o)
 .text.fn_checkvolume
                0x00000000       0x44 C:/Users/ground/Documents/GitHub/tevel2/GlobusSatProject/..//hal/hcc/lib\libHCCD.a(fat_common.o)
 .text.fn_get_volume_count
                0x00000000       0xa8 C:/Users/ground/Documents/GitHub/tevel2/GlobusSatProject/..//hal/hcc/lib\libHCCD.a(fat_common.o)
 .text.fn_get_volume_list
                0x00000000       0xc4 C:/Users/ground/Documents/GitHub/tevel2/GlobusSatProject/..//hal/hcc/lib\libHCCD.a(fat_common.o)
 .text.fn_createpartition
                0x00000000      0x56c C:/Users/ground/Documents/GitHub/tevel2/GlobusSatProject/..//hal/hcc/lib\libHCCD.a(fat_common.o)
 .text.fn_chdrive
                0x00000000       0xb0 C:/Users/ground/Documents/GitHub/tevel2/GlobusSatProject/..//hal/hcc/lib\libHCCD.a(fat_common.o)
 .text.fn_abortclose
                0x00000000      0x150 C:/Users/ground/Documents/GitHub/tevel2/GlobusSatProject/..//hal/hcc/lib\libHCCD.a(fat_common.o)
 .text.fn_flush_filebuffer
                0x00000000      0x138 C:/Users/ground/Documents/GitHub/tevel2/GlobusSatProject/..//hal/hcc/lib\libHCCD.a(fat_common.o)
 .text.fn_tell  0x00000000      0x19c C:/Users/ground/Documents/GitHub/tevel2/GlobusSatProject/..//hal/hcc/lib\libHCCD.a(fat_common.o)
 .text.fn_eof   0x00000000       0xf8 C:/Users/ground/Documents/GitHub/tevel2/GlobusSatProject/..//hal/hcc/lib\libHCCD.a(fat_common.o)
 .text.fn_rewind
                0x00000000       0x38 C:/Users/ground/Documents/GitHub/tevel2/GlobusSatProject/..//hal/hcc/lib\libHCCD.a(fat_common.o)
 .text.fn_putc  0x00000000       0x68 C:/Users/ground/Documents/GitHub/tevel2/GlobusSatProject/..//hal/hcc/lib\libHCCD.a(fat_common.o)
 .text.fn_getc  0x00000000       0x58 C:/Users/ground/Documents/GitHub/tevel2/GlobusSatProject/..//hal/hcc/lib\libHCCD.a(fat_common.o)
 .text.f_releaseFS
                0x00000000       0xb0 C:/Users/ground/Documents/GitHub/tevel2/GlobusSatProject/..//hal/hcc/lib\libHCCD.a(fat_common.o)
 .text.fn_get_oem
                0x00000000       0xfc C:/Users/ground/Documents/GitHub/tevel2/GlobusSatProject/..//hal/hcc/lib\libHCCD.a(fat_common.o)
 .text.fn_ftruncate
                0x00000000       0x64 C:/Users/ground/Documents/GitHub/tevel2/GlobusSatProject/..//hal/hcc/lib\libHCCD.a(fat_common.o)
 .text.fn_seteof
                0x00000000      0x468 C:/Users/ground/Documents/GitHub/tevel2/GlobusSatProject/..//hal/hcc/lib\libHCCD.a(fat_common.o)
 .text._fn_removeseekpos
                0x00000000       0xc0 C:/Users/ground/Documents/GitHub/tevel2/GlobusSatProject/..//hal/hcc/lib\libHCCD.a(fat_common.o)
 .text.fn_fstat
                0x00000000      0x250 C:/Users/ground/Documents/GitHub/tevel2/GlobusSatProject/..//hal/hcc/lib\libHCCD.a(fat_common.o)
 .text          0x00000000        0x0 C:/Users/ground/Documents/GitHub/tevel2/GlobusSatProject/..//hal/hcc/lib\libHCCD.a(safefat.o)
 .bss           0x00000000        0x0 C:/Users/ground/Documents/GitHub/tevel2/GlobusSatProject/..//hal/hcc/lib\libHCCD.a(safefat.o)
 .text.safe_seteof
                0x00000000      0x1a0 C:/Users/ground/Documents/GitHub/tevel2/GlobusSatProject/..//hal/hcc/lib\libHCCD.a(safefat.o)
 .text          0x00000000        0x0 C:/Users/ground/Documents/GitHub/tevel2/GlobusSatProject/..//hal/hcc/lib\libHCCD.a(atmel_mcipdc.o)
 .data          0x00000000        0x0 C:/Users/ground/Documents/GitHub/tevel2/GlobusSatProject/..//hal/hcc/lib\libHCCD.a(atmel_mcipdc.o)
 .text          0x00000000        0x0 C:/Users/ground/Documents/GitHub/tevel2/GlobusSatProject/..//hal/hcc/lib\libHCCD.a(oalp_task.o)
 .data          0x00000000        0x0 C:/Users/ground/Documents/GitHub/tevel2/GlobusSatProject/..//hal/hcc/lib\libHCCD.a(oalp_task.o)
 .bss           0x00000000        0x0 C:/Users/ground/Documents/GitHub/tevel2/GlobusSatProject/..//hal/hcc/lib\libHCCD.a(oalp_task.o)
 .text          0x00000000        0x0 C:/Users/ground/Documents/GitHub/tevel2/GlobusSatProject/..//hal/hcc/lib\libHCCD.a(oalp_mutex.o)
 .data          0x00000000        0x0 C:/Users/ground/Documents/GitHub/tevel2/GlobusSatProject/..//hal/hcc/lib\libHCCD.a(oalp_mutex.o)
 .bss           0x00000000        0x0 C:/Users/ground/Documents/GitHub/tevel2/GlobusSatProject/..//hal/hcc/lib\libHCCD.a(oalp_mutex.o)
 .text          0x00000000        0x0 C:/Users/ground/Documents/GitHub/tevel2/GlobusSatProject/..//hal/hcc/lib\libHCCD.a(atmel_mcipdc_hw.o)
 .data          0x00000000        0x0 C:/Users/ground/Documents/GitHub/tevel2/GlobusSatProject/..//hal/hcc/lib\libHCCD.a(atmel_mcipdc_hw.o)
 .bss           0x00000000        0x0 C:/Users/ground/Documents/GitHub/tevel2/GlobusSatProject/..//hal/hcc/lib\libHCCD.a(atmel_mcipdc_hw.o)
 .text          0x00000000        0x0 C:/Users/ground/Documents/GitHub/tevel2/GlobusSatProject/..//hal/hcc/lib\libHCCD.a(psp_rand.o)
 .bss           0x00000000        0x0 C:/Users/ground/Documents/GitHub/tevel2/GlobusSatProject/..//hal/hcc/lib\libHCCD.a(psp_rand.o)
 .text          0x00000000        0x0 C:/Users/ground/Documents/GitHub/tevel2/GlobusSatProject/..//hal/hcc/lib\libHCCD.a(psp_rtc.o)
 .data          0x00000000        0x0 C:/Users/ground/Documents/GitHub/tevel2/GlobusSatProject/..//hal/hcc/lib\libHCCD.a(psp_rtc.o)
 .bss           0x00000000        0x0 C:/Users/ground/Documents/GitHub/tevel2/GlobusSatProject/..//hal/hcc/lib\libHCCD.a(psp_rtc.o)
 .text          0x00000000        0x0 C:/Users/ground/Documents/GitHub/tevel2/GlobusSatProject/..//hal/hcc/lib\libHCCD.a(hcc_mem.o)
 .data          0x00000000        0x0 C:/Users/ground/Documents/GitHub/tevel2/GlobusSatProject/..//hal/hcc/lib\libHCCD.a(hcc_mem.o)
 .text._hcc_set_lock_dsc
                0x00000000      0x124 C:/Users/ground/Documents/GitHub/tevel2/GlobusSatProject/..//hal/hcc/lib\libHCCD.a(hcc_mem.o)
 .text._hcc_mem_lock_get_area
                0x00000000      0x244 C:/Users/ground/Documents/GitHub/tevel2/GlobusSatProject/..//hal/hcc/lib\libHCCD.a(hcc_mem.o)
 .text.hcc_mem_lock_tr
                0x00000000      0x2cc C:/Users/ground/Documents/GitHub/tevel2/GlobusSatProject/..//hal/hcc/lib\libHCCD.a(hcc_mem.o)
 .text.hcc_mem_lock
                0x00000000      0x1b0 C:/Users/ground/Documents/GitHub/tevel2/GlobusSatProject/..//hal/hcc/lib\libHCCD.a(hcc_mem.o)
 .text.hcc_mem_unlock
                0x00000000      0x170 C:/Users/ground/Documents/GitHub/tevel2/GlobusSatProject/..//hal/hcc/lib\libHCCD.a(hcc_mem.o)
 .text.hcc_mem_unlock_int
                0x00000000      0x1a8 C:/Users/ground/Documents/GitHub/tevel2/GlobusSatProject/..//hal/hcc/lib\libHCCD.a(hcc_mem.o)
 .text.hcc_mem_get_hdl
                0x00000000       0x8c C:/Users/ground/Documents/GitHub/tevel2/GlobusSatProject/..//hal/hcc/lib\libHCCD.a(hcc_mem.o)
 .text.hcc_mem_start
                0x00000000       0x1c C:/Users/ground/Documents/GitHub/tevel2/GlobusSatProject/..//hal/hcc/lib\libHCCD.a(hcc_mem.o)
 .text.hcc_mem_stop
                0x00000000       0x1c C:/Users/ground/Documents/GitHub/tevel2/GlobusSatProject/..//hal/hcc/lib\libHCCD.a(hcc_mem.o)
 .text          0x00000000        0x0 C:/Users/ground/Documents/GitHub/tevel2/GlobusSatProject/..//hal/hcc/lib\libHCCD.a(psp_hcc_mem.o)
 .data          0x00000000        0x0 C:/Users/ground/Documents/GitHub/tevel2/GlobusSatProject/..//hal/hcc/lib\libHCCD.a(psp_hcc_mem.o)
 .text          0x00000000        0x0 C:/Users/ground/Documents/GitHub/tevel2/GlobusSatProject/..//satellite-subsystems/satellite-subsystems/lib\libSatelliteSubsystemsD.a(IsisSolarPanelv2.o)
 .text.IsisSolarPanelv2_set_interface_timeout
                0x00000000       0x50 C:/Users/ground/Documents/GitHub/tevel2/GlobusSatProject/..//satellite-subsystems/satellite-subsystems/lib\libSatelliteSubsystemsD.a(IsisSolarPanelv2.o)
 .text.IsisSolarPanelv2_getState
                0x00000000       0x24 C:/Users/ground/Documents/GitHub/tevel2/GlobusSatProject/..//satellite-subsystems/satellite-subsystems/lib\libSatelliteSubsystemsD.a(IsisSolarPanelv2.o)
 .text          0x00000000        0x0 C:/Users/ground/Documents/GitHub/tevel2/GlobusSatProject/..//satellite-subsystems/satellite-subsystems/lib\libSatelliteSubsystemsD.a(isis_ants.o)
 .data          0x00000000        0x0 C:/Users/ground/Documents/GitHub/tevel2/GlobusSatProject/..//satellite-subsystems/satellite-subsystems/lib\libSatelliteSubsystemsD.a(isis_ants.o)
 .text.isis_ants__cancel_id
                0x00000000       0x98 C:/Users/ground/Documents/GitHub/tevel2/GlobusSatProject/..//satellite-subsystems/satellite-subsystems/lib\libSatelliteSubsystemsD.a(isis_ants.o)
 .text.isis_ants__clear_wdg
                0x00000000       0x98 C:/Users/ground/Documents/GitHub/tevel2/GlobusSatProject/..//satellite-subsystems/satellite-subsystems/lib\libSatelliteSubsystemsD.a(isis_ants.o)
 .text.isis_ants__deploy1
                0x00000000       0xb0 C:/Users/ground/Documents/GitHub/tevel2/GlobusSatProject/..//satellite-subsystems/satellite-subsystems/lib\libSatelliteSubsystemsD.a(isis_ants.o)
 .text.isis_ants__deploy1_override
                0x00000000       0xb0 C:/Users/ground/Documents/GitHub/tevel2/GlobusSatProject/..//satellite-subsystems/satellite-subsystems/lib\libSatelliteSubsystemsD.a(isis_ants.o)
 .text.isis_ants__deploy2
                0x00000000       0xb0 C:/Users/ground/Documents/GitHub/tevel2/GlobusSatProject/..//satellite-subsystems/satellite-subsystems/lib\libSatelliteSubsystemsD.a(isis_ants.o)
 .text.isis_ants__deploy2_override
                0x00000000       0xb0 C:/Users/ground/Documents/GitHub/tevel2/GlobusSatProject/..//satellite-subsystems/satellite-subsystems/lib\libSatelliteSubsystemsD.a(isis_ants.o)
 .text.isis_ants__deploy3
                0x00000000       0xb0 C:/Users/ground/Documents/GitHub/tevel2/GlobusSatProject/..//satellite-subsystems/satellite-subsystems/lib\libSatelliteSubsystemsD.a(isis_ants.o)
 .text.isis_ants__deploy3_override
                0x00000000       0xb0 C:/Users/ground/Documents/GitHub/tevel2/GlobusSatProject/..//satellite-subsystems/satellite-subsystems/lib\libSatelliteSubsystemsD.a(isis_ants.o)
 .text.isis_ants__deploy4
                0x00000000       0xb0 C:/Users/ground/Documents/GitHub/tevel2/GlobusSatProject/..//satellite-subsystems/satellite-subsystems/lib\libSatelliteSubsystemsD.a(isis_ants.o)
 .text.isis_ants__deploy4_override
                0x00000000       0xb0 C:/Users/ground/Documents/GitHub/tevel2/GlobusSatProject/..//satellite-subsystems/satellite-subsystems/lib\libSatelliteSubsystemsD.a(isis_ants.o)
 .text.isis_ants__get_deploy1_count
                0x00000000       0xa8 C:/Users/ground/Documents/GitHub/tevel2/GlobusSatProject/..//satellite-subsystems/satellite-subsystems/lib\libSatelliteSubsystemsD.a(isis_ants.o)
 .text.isis_ants__get_deploy1_time
                0x00000000       0xa8 C:/Users/ground/Documents/GitHub/tevel2/GlobusSatProject/..//satellite-subsystems/satellite-subsystems/lib\libSatelliteSubsystemsD.a(isis_ants.o)
 .text.isis_ants__get_deploy2_count
                0x00000000       0xa8 C:/Users/ground/Documents/GitHub/tevel2/GlobusSatProject/..//satellite-subsystems/satellite-subsystems/lib\libSatelliteSubsystemsD.a(isis_ants.o)
 .text.isis_ants__get_deploy2_time
                0x00000000       0xa8 C:/Users/ground/Documents/GitHub/tevel2/GlobusSatProject/..//satellite-subsystems/satellite-subsystems/lib\libSatelliteSubsystemsD.a(isis_ants.o)
 .text.isis_ants__get_deploy3_count
                0x00000000       0xa8 C:/Users/ground/Documents/GitHub/tevel2/GlobusSatProject/..//satellite-subsystems/satellite-subsystems/lib\libSatelliteSubsystemsD.a(isis_ants.o)
 .text.isis_ants__get_deploy3_time
                0x00000000       0xa8 C:/Users/ground/Documents/GitHub/tevel2/GlobusSatProject/..//satellite-subsystems/satellite-subsystems/lib\libSatelliteSubsystemsD.a(isis_ants.o)
 .text.isis_ants__get_deploy4_count
                0x00000000       0xa8 C:/Users/ground/Documents/GitHub/tevel2/GlobusSatProject/..//satellite-subsystems/satellite-subsystems/lib\libSatelliteSubsystemsD.a(isis_ants.o)
 .text.isis_ants__get_deploy4_time
                0x00000000       0xa8 C:/Users/ground/Documents/GitHub/tevel2/GlobusSatProject/..//satellite-subsystems/satellite-subsystems/lib\libSatelliteSubsystemsD.a(isis_ants.o)
 .text.isis_ants__get_idtimeleft
                0x00000000       0xa8 C:/Users/ground/Documents/GitHub/tevel2/GlobusSatProject/..//satellite-subsystems/satellite-subsystems/lib\libSatelliteSubsystemsD.a(isis_ants.o)
 .text.isis_ants__get_temperature
                0x00000000       0xa8 C:/Users/ground/Documents/GitHub/tevel2/GlobusSatProject/..//satellite-subsystems/satellite-subsystems/lib\libSatelliteSubsystemsD.a(isis_ants.o)
 .text.isis_ants__start_auto_deploy
                0x00000000       0xb0 C:/Users/ground/Documents/GitHub/tevel2/GlobusSatProject/..//satellite-subsystems/satellite-subsystems/lib\libSatelliteSubsystemsD.a(isis_ants.o)
 .text          0x00000000        0x0 C:/Users/ground/Documents/GitHub/tevel2/GlobusSatProject/..//satellite-subsystems/satellite-subsystems/lib\libSatelliteSubsystemsD.a(isis_vu_e.o)
 .data          0x00000000        0x0 C:/Users/ground/Documents/GitHub/tevel2/GlobusSatProject/..//satellite-subsystems/satellite-subsystems/lib\libSatelliteSubsystemsD.a(isis_vu_e.o)
 .text.isis_vu_e__clear_beacon
                0x00000000       0xa8 C:/Users/ground/Documents/GitHub/tevel2/GlobusSatProject/..//satellite-subsystems/satellite-subsystems/lib\libSatelliteSubsystemsD.a(isis_vu_e.o)
 .text.isis_vu_e__get_callsign_from
                0x00000000       0xb8 C:/Users/ground/Documents/GitHub/tevel2/GlobusSatProject/..//satellite-subsystems/satellite-subsystems/lib\libSatelliteSubsystemsD.a(isis_vu_e.o)
 .text.isis_vu_e__get_callsign_to
                0x00000000       0xb8 C:/Users/ground/Documents/GitHub/tevel2/GlobusSatProject/..//satellite-subsystems/satellite-subsystems/lib\libSatelliteSubsystemsD.a(isis_vu_e.o)
 .text.isis_vu_e__get_frame_count_length
                0x00000000       0x5c C:/Users/ground/Documents/GitHub/tevel2/GlobusSatProject/..//satellite-subsystems/satellite-subsystems/lib\libSatelliteSubsystemsD.a(isis_vu_e.o)
 .text.isis_vu_e__get_frame_count_length_variable
                0x00000000      0x17c C:/Users/ground/Documents/GitHub/tevel2/GlobusSatProject/..//satellite-subsystems/satellite-subsystems/lib\libSatelliteSubsystemsD.a(isis_vu_e.o)
 .text.isis_vu_e__get_full_frame
                0x00000000       0x84 C:/Users/ground/Documents/GitHub/tevel2/GlobusSatProject/..//satellite-subsystems/satellite-subsystems/lib\libSatelliteSubsystemsD.a(isis_vu_e.o)
 .text.isis_vu_e__get_full_frame_variable
                0x00000000      0x190 C:/Users/ground/Documents/GitHub/tevel2/GlobusSatProject/..//satellite-subsystems/satellite-subsystems/lib\libSatelliteSubsystemsD.a(isis_vu_e.o)
 .text.isis_vu_e__get_rx_last_reset_cause
                0x00000000       0xb8 C:/Users/ground/Documents/GitHub/tevel2/GlobusSatProject/..//satellite-subsystems/satellite-subsystems/lib\libSatelliteSubsystemsD.a(isis_vu_e.o)
 .text.isis_vu_e__get_rx_pll_error
                0x00000000       0xb8 C:/Users/ground/Documents/GitHub/tevel2/GlobusSatProject/..//satellite-subsystems/satellite-subsystems/lib\libSatelliteSubsystemsD.a(isis_vu_e.o)
 .text.isis_vu_e__get_rx_swinfo
                0x00000000       0xb8 C:/Users/ground/Documents/GitHub/tevel2/GlobusSatProject/..//satellite-subsystems/satellite-subsystems/lib\libSatelliteSubsystemsD.a(isis_vu_e.o)
 .text.isis_vu_e__get_tx_last_reset_cause
                0x00000000       0xb8 C:/Users/ground/Documents/GitHub/tevel2/GlobusSatProject/..//satellite-subsystems/satellite-subsystems/lib\libSatelliteSubsystemsD.a(isis_vu_e.o)
 .text.isis_vu_e__get_tx_pll_error
                0x00000000       0xb8 C:/Users/ground/Documents/GitHub/tevel2/GlobusSatProject/..//satellite-subsystems/satellite-subsystems/lib\libSatelliteSubsystemsD.a(isis_vu_e.o)
 .text.isis_vu_e__get_tx_rssi
                0x00000000       0xb8 C:/Users/ground/Documents/GitHub/tevel2/GlobusSatProject/..//satellite-subsystems/satellite-subsystems/lib\libSatelliteSubsystemsD.a(isis_vu_e.o)
 .text.isis_vu_e__get_tx_swinfo
                0x00000000       0xb8 C:/Users/ground/Documents/GitHub/tevel2/GlobusSatProject/..//satellite-subsystems/satellite-subsystems/lib\libSatelliteSubsystemsD.a(isis_vu_e.o)
 .text.isis_vu_e__get_tx_telemetry_last
                0x00000000       0xb8 C:/Users/ground/Documents/GitHub/tevel2/GlobusSatProject/..//satellite-subsystems/satellite-subsystems/lib\libSatelliteSubsystemsD.a(isis_vu_e.o)
 .text.isis_vu_e__remove_frame_all
                0x00000000       0xa8 C:/Users/ground/Documents/GitHub/tevel2/GlobusSatProject/..//satellite-subsystems/satellite-subsystems/lib\libSatelliteSubsystemsD.a(isis_vu_e.o)
 .text.isis_vu_e__reset_wdg_rx
                0x00000000       0xa8 C:/Users/ground/Documents/GitHub/tevel2/GlobusSatProject/..//satellite-subsystems/satellite-subsystems/lib\libSatelliteSubsystemsD.a(isis_vu_e.o)
 .text.isis_vu_e__reset_wdg_tx
                0x00000000       0xa8 C:/Users/ground/Documents/GitHub/tevel2/GlobusSatProject/..//satellite-subsystems/satellite-subsystems/lib\libSatelliteSubsystemsD.a(isis_vu_e.o)
 .text.isis_vu_e__send_frame_with_callsigns
                0x00000000      0x250 C:/Users/ground/Documents/GitHub/tevel2/GlobusSatProject/..//satellite-subsystems/satellite-subsystems/lib\libSatelliteSubsystemsD.a(isis_vu_e.o)
 .text.isis_vu_e__set_beacon
                0x00000000      0x1dc C:/Users/ground/Documents/GitHub/tevel2/GlobusSatProject/..//satellite-subsystems/satellite-subsystems/lib\libSatelliteSubsystemsD.a(isis_vu_e.o)
 .text.isis_vu_e__set_beacon_with_callsigns
                0x00000000      0x288 C:/Users/ground/Documents/GitHub/tevel2/GlobusSatProject/..//satellite-subsystems/satellite-subsystems/lib\libSatelliteSubsystemsD.a(isis_vu_e.o)
 .text.isis_vu_e__set_bitrate
                0x00000000       0xc0 C:/Users/ground/Documents/GitHub/tevel2/GlobusSatProject/..//satellite-subsystems/satellite-subsystems/lib\libSatelliteSubsystemsD.a(isis_vu_e.o)
 .text.isis_vu_e__set_callsign_from
                0x00000000       0xe8 C:/Users/ground/Documents/GitHub/tevel2/GlobusSatProject/..//satellite-subsystems/satellite-subsystems/lib\libSatelliteSubsystemsD.a(isis_vu_e.o)
 .text.isis_vu_e__set_callsign_to
                0x00000000       0xe8 C:/Users/ground/Documents/GitHub/tevel2/GlobusSatProject/..//satellite-subsystems/satellite-subsystems/lib\libSatelliteSubsystemsD.a(isis_vu_e.o)
 .text.isis_vu_e__set_tx_pll_powerout
                0x00000000       0xe8 C:/Users/ground/Documents/GitHub/tevel2/GlobusSatProject/..//satellite-subsystems/satellite-subsystems/lib\libSatelliteSubsystemsD.a(isis_vu_e.o)
 .text.isis_vu_e__set_tx_thr_rssi
                0x00000000       0xe8 C:/Users/ground/Documents/GitHub/tevel2/GlobusSatProject/..//satellite-subsystems/satellite-subsystems/lib\libSatelliteSubsystemsD.a(isis_vu_e.o)
 .text.isis_vu_e__tx_clear_pa_overtemp_flag
                0x00000000       0xa8 C:/Users/ground/Documents/GitHub/tevel2/GlobusSatProject/..//satellite-subsystems/satellite-subsystems/lib\libSatelliteSubsystemsD.a(isis_vu_e.o)
 .text.isis_vu_e__tx_get_pa_overtemp_flag
                0x00000000       0xb8 C:/Users/ground/Documents/GitHub/tevel2/GlobusSatProject/..//satellite-subsystems/satellite-subsystems/lib\libSatelliteSubsystemsD.a(isis_vu_e.o)
 .text          0x00000000        0x0 C:/Users/ground/Documents/GitHub/tevel2/GlobusSatProject/..//satellite-subsystems/satellite-subsystems/lib\libSatelliteSubsystemsD.a(isismepsv2_ivid5_piu.o)
 .data          0x00000000        0x0 C:/Users/ground/Documents/GitHub/tevel2/GlobusSatProject/..//satellite-subsystems/satellite-subsystems/lib\libSatelliteSubsystemsD.a(isismepsv2_ivid5_piu.o)
 .text.isismepsv2_ivid5_piu__cancel
                0x00000000       0xc4 C:/Users/ground/Documents/GitHub/tevel2/GlobusSatProject/..//satellite-subsystems/satellite-subsystems/lib\libSatelliteSubsystemsD.a(isismepsv2_ivid5_piu.o)
 .text.isismepsv2_ivid5_piu__getconfigurationparameter
                0x00000000       0xd8 C:/Users/ground/Documents/GitHub/tevel2/GlobusSatProject/..//satellite-subsystems/satellite-subsystems/lib\libSatelliteSubsystemsD.a(isismepsv2_ivid5_piu.o)
 .text.isismepsv2_ivid5_piu__gethousekeepingengincdb
                0x00000000       0xc4 C:/Users/ground/Documents/GitHub/tevel2/GlobusSatProject/..//satellite-subsystems/satellite-subsystems/lib\libSatelliteSubsystemsD.a(isismepsv2_ivid5_piu.o)
 .text.isismepsv2_ivid5_piu__gethousekeepingengrunningavgincdb
                0x00000000       0xc4 C:/Users/ground/Documents/GitHub/tevel2/GlobusSatProject/..//satellite-subsystems/satellite-subsystems/lib\libSatelliteSubsystemsD.a(isismepsv2_ivid5_piu.o)
 .text.isismepsv2_ivid5_piu__gethousekeepingrawincdb
                0x00000000       0xc4 C:/Users/ground/Documents/GitHub/tevel2/GlobusSatProject/..//satellite-subsystems/satellite-subsystems/lib\libSatelliteSubsystemsD.a(isismepsv2_ivid5_piu.o)
 .text.isismepsv2_ivid5_piu__getovercurrentfaultstate
                0x00000000       0xc4 C:/Users/ground/Documents/GitHub/tevel2/GlobusSatProject/..//satellite-subsystems/satellite-subsystems/lib\libSatelliteSubsystemsD.a(isismepsv2_ivid5_piu.o)
 .text.isismepsv2_ivid5_piu__getsystemstatus
                0x00000000       0xc4 C:/Users/ground/Documents/GitHub/tevel2/GlobusSatProject/..//satellite-subsystems/satellite-subsystems/lib\libSatelliteSubsystemsD.a(isismepsv2_ivid5_piu.o)
 .text.isismepsv2_ivid5_piu__loadconfiguration
                0x00000000       0xd8 C:/Users/ground/Documents/GitHub/tevel2/GlobusSatProject/..//satellite-subsystems/satellite-subsystems/lib\libSatelliteSubsystemsD.a(isismepsv2_ivid5_piu.o)
 .text.isismepsv2_ivid5_piu__nop
                0x00000000       0xc4 C:/Users/ground/Documents/GitHub/tevel2/GlobusSatProject/..//satellite-subsystems/satellite-subsystems/lib\libSatelliteSubsystemsD.a(isismepsv2_ivid5_piu.o)
 .text.isismepsv2_ivid5_piu__outputbusgroupoff
                0x00000000       0xd8 C:/Users/ground/Documents/GitHub/tevel2/GlobusSatProject/..//satellite-subsystems/satellite-subsystems/lib\libSatelliteSubsystemsD.a(isismepsv2_ivid5_piu.o)
 .text.isismepsv2_ivid5_piu__outputbusgroupon
                0x00000000       0xd8 C:/Users/ground/Documents/GitHub/tevel2/GlobusSatProject/..//satellite-subsystems/satellite-subsystems/lib\libSatelliteSubsystemsD.a(isismepsv2_ivid5_piu.o)
 .text.isismepsv2_ivid5_piu__outputbusgroupstate
                0x00000000       0xd8 C:/Users/ground/Documents/GitHub/tevel2/GlobusSatProject/..//satellite-subsystems/satellite-subsystems/lib\libSatelliteSubsystemsD.a(isismepsv2_ivid5_piu.o)
 .text.isismepsv2_ivid5_piu__resetconfiguration
                0x00000000       0xd8 C:/Users/ground/Documents/GitHub/tevel2/GlobusSatProject/..//satellite-subsystems/satellite-subsystems/lib\libSatelliteSubsystemsD.a(isismepsv2_ivid5_piu.o)
 .text.isismepsv2_ivid5_piu__resetconfigurationparameter
                0x00000000       0xd8 C:/Users/ground/Documents/GitHub/tevel2/GlobusSatProject/..//satellite-subsystems/satellite-subsystems/lib\libSatelliteSubsystemsD.a(isismepsv2_ivid5_piu.o)
 .text.isismepsv2_ivid5_piu__resetwatchdog
                0x00000000       0xc4 C:/Users/ground/Documents/GitHub/tevel2/GlobusSatProject/..//satellite-subsystems/satellite-subsystems/lib\libSatelliteSubsystemsD.a(isismepsv2_ivid5_piu.o)
 .text.isismepsv2_ivid5_piu__saveconfiguration
                0x00000000      0x118 C:/Users/ground/Documents/GitHub/tevel2/GlobusSatProject/..//satellite-subsystems/satellite-subsystems/lib\libSatelliteSubsystemsD.a(isismepsv2_ivid5_piu.o)
 .text.isismepsv2_ivid5_piu__setconfigurationparameter
                0x00000000      0x11c C:/Users/ground/Documents/GitHub/tevel2/GlobusSatProject/..//satellite-subsystems/satellite-subsystems/lib\libSatelliteSubsystemsD.a(isismepsv2_ivid5_piu.o)
 .text.isismepsv2_ivid5_piu__switchtonominal
                0x00000000       0xc4 C:/Users/ground/Documents/GitHub/tevel2/GlobusSatProject/..//satellite-subsystems/satellite-subsystems/lib\libSatelliteSubsystemsD.a(isismepsv2_ivid5_piu.o)
 .text.isismepsv2_ivid5_piu__switchtosafety
                0x00000000       0xc4 C:/Users/ground/Documents/GitHub/tevel2/GlobusSatProject/..//satellite-subsystems/satellite-subsystems/lib\libSatelliteSubsystemsD.a(isismepsv2_ivid5_piu.o)
 .text          0x00000000        0x0 C:/Users/ground/Documents/GitHub/tevel2/GlobusSatProject/..//hal/freertos/lib\libFreeRTOSD.a(queue.o)
 .data          0x00000000        0x0 C:/Users/ground/Documents/GitHub/tevel2/GlobusSatProject/..//hal/freertos/lib\libFreeRTOSD.a(queue.o)
 .bss           0x00000000        0x0 C:/Users/ground/Documents/GitHub/tevel2/GlobusSatProject/..//hal/freertos/lib\libFreeRTOSD.a(queue.o)
 .text.xQueueGiveMutexRecursive
                0x00000000       0xc0 C:/Users/ground/Documents/GitHub/tevel2/GlobusSatProject/..//hal/freertos/lib\libFreeRTOSD.a(queue.o)
 .text.xQueueTakeMutexRecursive
                0x00000000       0xd4 C:/Users/ground/Documents/GitHub/tevel2/GlobusSatProject/..//hal/freertos/lib\libFreeRTOSD.a(queue.o)
 .text.xQueueCreateCountingSemaphore
                0x00000000       0x88 C:/Users/ground/Documents/GitHub/tevel2/GlobusSatProject/..//hal/freertos/lib\libFreeRTOSD.a(queue.o)
 .text.xQueueReceiveFromISR
                0x00000000      0x15c C:/Users/ground/Documents/GitHub/tevel2/GlobusSatProject/..//hal/freertos/lib\libFreeRTOSD.a(queue.o)
 .text.xQueuePeekFromISR
                0x00000000       0xf0 C:/Users/ground/Documents/GitHub/tevel2/GlobusSatProject/..//hal/freertos/lib\libFreeRTOSD.a(queue.o)
 .text.uxQueueSpacesAvailable
                0x00000000       0x80 C:/Users/ground/Documents/GitHub/tevel2/GlobusSatProject/..//hal/freertos/lib\libFreeRTOSD.a(queue.o)
 .text.uxQueueMessagesWaitingFromISR
                0x00000000       0x64 C:/Users/ground/Documents/GitHub/tevel2/GlobusSatProject/..//hal/freertos/lib\libFreeRTOSD.a(queue.o)
 .text.xQueueIsQueueEmptyFromISR
                0x00000000       0x7c C:/Users/ground/Documents/GitHub/tevel2/GlobusSatProject/..//hal/freertos/lib\libFreeRTOSD.a(queue.o)
 .text.xQueueIsQueueFullFromISR
                0x00000000       0x84 C:/Users/ground/Documents/GitHub/tevel2/GlobusSatProject/..//hal/freertos/lib\libFreeRTOSD.a(queue.o)
 .text.vQueueAddToRegistry
                0x00000000       0x90 C:/Users/ground/Documents/GitHub/tevel2/GlobusSatProject/..//hal/freertos/lib\libFreeRTOSD.a(queue.o)
 .text.xQueueCreateSet
                0x00000000       0x34 C:/Users/ground/Documents/GitHub/tevel2/GlobusSatProject/..//hal/freertos/lib\libFreeRTOSD.a(queue.o)
 .text.xQueueAddToSet
                0x00000000       0x78 C:/Users/ground/Documents/GitHub/tevel2/GlobusSatProject/..//hal/freertos/lib\libFreeRTOSD.a(queue.o)
 .text.xQueueRemoveFromSet
                0x00000000       0x84 C:/Users/ground/Documents/GitHub/tevel2/GlobusSatProject/..//hal/freertos/lib\libFreeRTOSD.a(queue.o)
 .text.xQueueSelectFromSet
                0x00000000       0x44 C:/Users/ground/Documents/GitHub/tevel2/GlobusSatProject/..//hal/freertos/lib\libFreeRTOSD.a(queue.o)
 .text.xQueueSelectFromSetFromISR
                0x00000000       0x3c C:/Users/ground/Documents/GitHub/tevel2/GlobusSatProject/..//hal/freertos/lib\libFreeRTOSD.a(queue.o)
 .text          0x00000000        0x0 C:/Users/ground/Documents/GitHub/tevel2/GlobusSatProject/..//hal/freertos/lib\libFreeRTOSD.a(list.o)
 .data          0x00000000        0x0 C:/Users/ground/Documents/GitHub/tevel2/GlobusSatProject/..//hal/freertos/lib\libFreeRTOSD.a(list.o)
 .bss           0x00000000        0x0 C:/Users/ground/Documents/GitHub/tevel2/GlobusSatProject/..//hal/freertos/lib\libFreeRTOSD.a(list.o)
 .text          0x00000000        0x0 C:/Users/ground/Documents/GitHub/tevel2/GlobusSatProject/..//hal/freertos/lib\libFreeRTOSD.a(tasks.o)
 .text.uxTaskPriorityGet
                0x00000000       0x58 C:/Users/ground/Documents/GitHub/tevel2/GlobusSatProject/..//hal/freertos/lib\libFreeRTOSD.a(tasks.o)
 .text.vTaskPrioritySet
                0x00000000      0x22c C:/Users/ground/Documents/GitHub/tevel2/GlobusSatProject/..//hal/freertos/lib\libFreeRTOSD.a(tasks.o)
 .text.xTaskResumeFromISR
                0x00000000      0x150 C:/Users/ground/Documents/GitHub/tevel2/GlobusSatProject/..//hal/freertos/lib\libFreeRTOSD.a(tasks.o)
 .text.vTaskEndScheduler
                0x00000000       0x34 C:/Users/ground/Documents/GitHub/tevel2/GlobusSatProject/..//hal/freertos/lib\libFreeRTOSD.a(tasks.o)
 .text.xTaskGetTickCountFromISR
                0x00000000       0x38 C:/Users/ground/Documents/GitHub/tevel2/GlobusSatProject/..//hal/freertos/lib\libFreeRTOSD.a(tasks.o)
 .text.uxTaskGetNumberOfTasks
                0x00000000       0x24 C:/Users/ground/Documents/GitHub/tevel2/GlobusSatProject/..//hal/freertos/lib\libFreeRTOSD.a(tasks.o)
 .text.pcTaskGetTaskName
                0x00000000       0x80 C:/Users/ground/Documents/GitHub/tevel2/GlobusSatProject/..//hal/freertos/lib\libFreeRTOSD.a(tasks.o)
 .text          0x00000000        0x0 C:/Users/ground/Documents/GitHub/tevel2/GlobusSatProject/..//hal/freertos/lib\libFreeRTOSD.a(timers.o)
 .data          0x00000000        0x0 C:/Users/ground/Documents/GitHub/tevel2/GlobusSatProject/..//hal/freertos/lib\libFreeRTOSD.a(timers.o)
 .text.xTimerCreate
                0x00000000       0xe0 C:/Users/ground/Documents/GitHub/tevel2/GlobusSatProject/..//hal/freertos/lib\libFreeRTOSD.a(timers.o)
 .text.xTimerIsTimerActive
                0x00000000       0x4c C:/Users/ground/Documents/GitHub/tevel2/GlobusSatProject/..//hal/freertos/lib\libFreeRTOSD.a(timers.o)
 .text.pvTimerGetTimerID
                0x00000000       0x30 C:/Users/ground/Documents/GitHub/tevel2/GlobusSatProject/..//hal/freertos/lib\libFreeRTOSD.a(timers.o)
 .text          0x00000000        0x0 C:/Users/ground/Documents/GitHub/tevel2/GlobusSatProject/..//hal/freertos/lib\libFreeRTOSD.a(hooks.o)
 .data          0x00000000        0x0 C:/Users/ground/Documents/GitHub/tevel2/GlobusSatProject/..//hal/freertos/lib\libFreeRTOSD.a(hooks.o)
 .bss           0x00000000        0x0 C:/Users/ground/Documents/GitHub/tevel2/GlobusSatProject/..//hal/freertos/lib\libFreeRTOSD.a(hooks.o)
 .text          0x00000000        0x0 C:/Users/ground/Documents/GitHub/tevel2/GlobusSatProject/..//hal/freertos/lib\libFreeRTOSD.a(standardMemMang.o)
 .data          0x00000000        0x0 C:/Users/ground/Documents/GitHub/tevel2/GlobusSatProject/..//hal/freertos/lib\libFreeRTOSD.a(standardMemMang.o)
 .text.vPortInitialiseBlocks
                0x00000000       0x14 C:/Users/ground/Documents/GitHub/tevel2/GlobusSatProject/..//hal/freertos/lib\libFreeRTOSD.a(standardMemMang.o)
 .text.xPortGetFreeHeapSize
                0x00000000       0x24 C:/Users/ground/Documents/GitHub/tevel2/GlobusSatProject/..//hal/freertos/lib\libFreeRTOSD.a(standardMemMang.o)
 .text.__malloc_lock
                0x00000000       0x10 C:/Users/ground/Documents/GitHub/tevel2/GlobusSatProject/..//hal/freertos/lib\libFreeRTOSD.a(standardMemMang.o)
 .text.__malloc_unlock
                0x00000000       0x10 C:/Users/ground/Documents/GitHub/tevel2/GlobusSatProject/..//hal/freertos/lib\libFreeRTOSD.a(standardMemMang.o)
 .text.__env_lock
                0x00000000       0x10 C:/Users/ground/Documents/GitHub/tevel2/GlobusSatProject/..//hal/freertos/lib\libFreeRTOSD.a(standardMemMang.o)
 .text.__env_unlock
                0x00000000       0x10 C:/Users/ground/Documents/GitHub/tevel2/GlobusSatProject/..//hal/freertos/lib\libFreeRTOSD.a(standardMemMang.o)
 .text          0x00000000        0x0 C:/Users/ground/Documents/GitHub/tevel2/GlobusSatProject/..//hal/freertos/lib\libFreeRTOSD.a(port.o)
 .text.vPortEndScheduler
                0x00000000       0x14 C:/Users/ground/Documents/GitHub/tevel2/GlobusSatProject/..//hal/freertos/lib\libFreeRTOSD.a(port.o)
 .text.portISR_SetDBUGHandler
                0x00000000       0x2c C:/Users/ground/Documents/GitHub/tevel2/GlobusSatProject/..//hal/freertos/lib\libFreeRTOSD.a(port.o)
 .text.portISR_SetRTTHandler
                0x00000000       0x2c C:/Users/ground/Documents/GitHub/tevel2/GlobusSatProject/..//hal/freertos/lib\libFreeRTOSD.a(port.o)
 .text.vPortDisableInterruptsFromThumb
                0x00000000       0x18 C:/Users/ground/Documents/GitHub/tevel2/GlobusSatProject/..//hal/freertos/lib\libFreeRTOSD.a(port.o)
 .text.vPortEnableInterruptsFromThumb
                0x00000000       0x18 C:/Users/ground/Documents/GitHub/tevel2/GlobusSatProject/..//hal/freertos/lib\libFreeRTOSD.a(port.o)
 .text          0x00000000        0x0 C:/Users/ground/Documents/GitHub/tevel2/GlobusSatProject/..//hal/at91/lib\libAt91D.a(syscalls.o)
 .data          0x00000000        0x0 C:/Users/ground/Documents/GitHub/tevel2/GlobusSatProject/..//hal/at91/lib\libAt91D.a(syscalls.o)
 .bss           0x00000000        0x0 C:/Users/ground/Documents/GitHub/tevel2/GlobusSatProject/..//hal/at91/lib\libAt91D.a(syscalls.o)
 .text._open    0x00000000       0x2c C:/Users/ground/Documents/GitHub/tevel2/GlobusSatProject/..//hal/at91/lib\libAt91D.a(syscalls.o)
 .text._link    0x00000000       0x28 C:/Users/ground/Documents/GitHub/tevel2/GlobusSatProject/..//hal/at91/lib\libAt91D.a(syscalls.o)
 .text._rename  0x00000000       0x28 C:/Users/ground/Documents/GitHub/tevel2/GlobusSatProject/..//hal/at91/lib\libAt91D.a(syscalls.o)
 .text._unlink  0x00000000       0x24 C:/Users/ground/Documents/GitHub/tevel2/GlobusSatProject/..//hal/at91/lib\libAt91D.a(syscalls.o)
 .text.fsync    0x00000000       0x24 C:/Users/ground/Documents/GitHub/tevel2/GlobusSatProject/..//hal/at91/lib\libAt91D.a(syscalls.o)
 .text._stat    0x00000000       0x28 C:/Users/ground/Documents/GitHub/tevel2/GlobusSatProject/..//hal/at91/lib\libAt91D.a(syscalls.o)
 .text._kill    0x00000000       0x1c C:/Users/ground/Documents/GitHub/tevel2/GlobusSatProject/..//hal/at91/lib\libAt91D.a(syscalls.o)
 .text._getpid  0x00000000       0x1c C:/Users/ground/Documents/GitHub/tevel2/GlobusSatProject/..//hal/at91/lib\libAt91D.a(syscalls.o)
 .text._gettimeofday
                0x00000000       0x1c C:/Users/ground/Documents/GitHub/tevel2/GlobusSatProject/..//hal/at91/lib\libAt91D.a(syscalls.o)
 .text          0x00000000        0x0 C:/Users/ground/Documents/GitHub/tevel2/GlobusSatProject/..//hal/at91/lib\libAt91D.a(aic.o)
 .data          0x00000000        0x0 C:/Users/ground/Documents/GitHub/tevel2/GlobusSatProject/..//hal/at91/lib\libAt91D.a(aic.o)
 .bss           0x00000000        0x0 C:/Users/ground/Documents/GitHub/tevel2/GlobusSatProject/..//hal/at91/lib\libAt91D.a(aic.o)
 .text          0x00000000        0x0 C:/Users/ground/Documents/GitHub/tevel2/GlobusSatProject/..//hal/at91/lib\libAt91D.a(cp15.o)
 .data          0x00000000        0x0 C:/Users/ground/Documents/GitHub/tevel2/GlobusSatProject/..//hal/at91/lib\libAt91D.a(cp15.o)
 .bss           0x00000000        0x0 C:/Users/ground/Documents/GitHub/tevel2/GlobusSatProject/..//hal/at91/lib\libAt91D.a(cp15.o)
 .text.CP15_Is_I_CacheEnabled
                0x00000000       0x38 C:/Users/ground/Documents/GitHub/tevel2/GlobusSatProject/..//hal/at91/lib\libAt91D.a(cp15.o)
 .text.CP15_Is_MMUEnabled
                0x00000000       0x38 C:/Users/ground/Documents/GitHub/tevel2/GlobusSatProject/..//hal/at91/lib\libAt91D.a(cp15.o)
 .text.CP15_EnableMMU
                0x00000000       0x94 C:/Users/ground/Documents/GitHub/tevel2/GlobusSatProject/..//hal/at91/lib\libAt91D.a(cp15.o)
 .text.CP15_Is_DCacheEnabled
                0x00000000       0x38 C:/Users/ground/Documents/GitHub/tevel2/GlobusSatProject/..//hal/at91/lib\libAt91D.a(cp15.o)
 .text.CP15_Enable_D_Cache
                0x00000000       0xcc C:/Users/ground/Documents/GitHub/tevel2/GlobusSatProject/..//hal/at91/lib\libAt91D.a(cp15.o)
 .text.CP15_Is_AlignmentFaultEnabled
                0x00000000       0x38 C:/Users/ground/Documents/GitHub/tevel2/GlobusSatProject/..//hal/at91/lib\libAt91D.a(cp15.o)
 .text.CP15_Enable_AlignmentFault
                0x00000000       0x94 C:/Users/ground/Documents/GitHub/tevel2/GlobusSatProject/..//hal/at91/lib\libAt91D.a(cp15.o)
 .text          0x00000000        0x0 C:/Users/ground/Documents/GitHub/tevel2/GlobusSatProject/..//hal/at91/lib\libAt91D.a(dbgu.o)
 .data          0x00000000        0x0 C:/Users/ground/Documents/GitHub/tevel2/GlobusSatProject/..//hal/at91/lib\libAt91D.a(dbgu.o)
 .bss           0x00000000        0x0 C:/Users/ground/Documents/GitHub/tevel2/GlobusSatProject/..//hal/at91/lib\libAt91D.a(dbgu.o)
 .text.DBGU_IsRxReady
                0x00000000       0x28 C:/Users/ground/Documents/GitHub/tevel2/GlobusSatProject/..//hal/at91/lib\libAt91D.a(dbgu.o)
 .text.fputc    0x00000000       0x70 C:/Users/ground/Documents/GitHub/tevel2/GlobusSatProject/..//hal/at91/lib\libAt91D.a(dbgu.o)
 .text.fputs    0x00000000       0x80 C:/Users/ground/Documents/GitHub/tevel2/GlobusSatProject/..//hal/at91/lib\libAt91D.a(dbgu.o)
 .text.putchar  0x00000000       0x3c C:/Users/ground/Documents/GitHub/tevel2/GlobusSatProject/..//hal/at91/lib\libAt91D.a(dbgu.o)
 .text          0x00000000        0x0 C:/Users/ground/Documents/GitHub/tevel2/GlobusSatProject/..//hal/at91/lib\libAt91D.a(pio.o)
 .data          0x00000000        0x0 C:/Users/ground/Documents/GitHub/tevel2/GlobusSatProject/..//hal/at91/lib\libAt91D.a(pio.o)
 .bss           0x00000000        0x0 C:/Users/ground/Documents/GitHub/tevel2/GlobusSatProject/..//hal/at91/lib\libAt91D.a(pio.o)
 .text.PIO_GetOutputDataStatus
                0x00000000       0x60 C:/Users/ground/Documents/GitHub/tevel2/GlobusSatProject/..//hal/at91/lib\libAt91D.a(pio.o)
 .text.PIO_GetISR
                0x00000000       0x40 C:/Users/ground/Documents/GitHub/tevel2/GlobusSatProject/..//hal/at91/lib\libAt91D.a(pio.o)
 .text          0x00000000        0x0 C:/Users/ground/Documents/GitHub/tevel2/GlobusSatProject/..//hal/at91/lib\libAt91D.a(pit.o)
 .data          0x00000000        0x0 C:/Users/ground/Documents/GitHub/tevel2/GlobusSatProject/..//hal/at91/lib\libAt91D.a(pit.o)
 .bss           0x00000000        0x0 C:/Users/ground/Documents/GitHub/tevel2/GlobusSatProject/..//hal/at91/lib\libAt91D.a(pit.o)
 .text.PIT_SetPIV
                0x00000000       0x40 C:/Users/ground/Documents/GitHub/tevel2/GlobusSatProject/..//hal/at91/lib\libAt91D.a(pit.o)
 .text.PIT_DisableIT
                0x00000000       0x2c C:/Users/ground/Documents/GitHub/tevel2/GlobusSatProject/..//hal/at91/lib\libAt91D.a(pit.o)
 .text.PIT_GetMode
                0x00000000       0x24 C:/Users/ground/Documents/GitHub/tevel2/GlobusSatProject/..//hal/at91/lib\libAt91D.a(pit.o)
 .text.PIT_GetStatus
                0x00000000       0x24 C:/Users/ground/Documents/GitHub/tevel2/GlobusSatProject/..//hal/at91/lib\libAt91D.a(pit.o)
 .text.PIT_GetPIIR
                0x00000000       0x24 C:/Users/ground/Documents/GitHub/tevel2/GlobusSatProject/..//hal/at91/lib\libAt91D.a(pit.o)
 .text.PIT_GetPIVR
                0x00000000       0x24 C:/Users/ground/Documents/GitHub/tevel2/GlobusSatProject/..//hal/at91/lib\libAt91D.a(pit.o)
 .text          0x00000000        0x0 C:/Users/ground/Documents/GitHub/tevel2/GlobusSatProject/..//hal/at91/lib\libAt91D.a(pmc.o)
 .data          0x00000000        0x0 C:/Users/ground/Documents/GitHub/tevel2/GlobusSatProject/..//hal/at91/lib\libAt91D.a(pmc.o)
 .bss           0x00000000        0x0 C:/Users/ground/Documents/GitHub/tevel2/GlobusSatProject/..//hal/at91/lib\libAt91D.a(pmc.o)
 .text.PMC_DisableProcessorClock
                0x00000000       0x3c C:/Users/ground/Documents/GitHub/tevel2/GlobusSatProject/..//hal/at91/lib\libAt91D.a(pmc.o)
 .text.PMC_EnableAllPeripherals
                0x00000000       0x60 C:/Users/ground/Documents/GitHub/tevel2/GlobusSatProject/..//hal/at91/lib\libAt91D.a(pmc.o)
 .text.PMC_DisableAllPeripherals
                0x00000000       0x60 C:/Users/ground/Documents/GitHub/tevel2/GlobusSatProject/..//hal/at91/lib\libAt91D.a(pmc.o)
 .text.PMC_IsAllPeriphEnabled
                0x00000000       0x34 C:/Users/ground/Documents/GitHub/tevel2/GlobusSatProject/..//hal/at91/lib\libAt91D.a(pmc.o)
 .text.PMC_CPUInIdleMode
                0x00000000       0x14 C:/Users/ground/Documents/GitHub/tevel2/GlobusSatProject/..//hal/at91/lib\libAt91D.a(pmc.o)
 .text          0x00000000        0x0 C:/Users/ground/Documents/GitHub/tevel2/GlobusSatProject/..//hal/at91/lib\libAt91D.a(spi_at91.o)
 .data          0x00000000        0x0 C:/Users/ground/Documents/GitHub/tevel2/GlobusSatProject/..//hal/at91/lib\libAt91D.a(spi_at91.o)
 .bss           0x00000000        0x0 C:/Users/ground/Documents/GitHub/tevel2/GlobusSatProject/..//hal/at91/lib\libAt91D.a(spi_at91.o)
 .text.SPI_Write
                0x00000000       0x84 C:/Users/ground/Documents/GitHub/tevel2/GlobusSatProject/..//hal/at91/lib\libAt91D.a(spi_at91.o)
 .text.SPI_WriteBuffer
                0x00000000       0x98 C:/Users/ground/Documents/GitHub/tevel2/GlobusSatProject/..//hal/at91/lib\libAt91D.a(spi_at91.o)
 .text.SPI_IsFinished
                0x00000000       0x3c C:/Users/ground/Documents/GitHub/tevel2/GlobusSatProject/..//hal/at91/lib\libAt91D.a(spi_at91.o)
 .text.SPI_Read
                0x00000000       0x48 C:/Users/ground/Documents/GitHub/tevel2/GlobusSatProject/..//hal/at91/lib\libAt91D.a(spi_at91.o)
 .text.SPI_ReadBuffer
                0x00000000       0x98 C:/Users/ground/Documents/GitHub/tevel2/GlobusSatProject/..//hal/at91/lib\libAt91D.a(spi_at91.o)
 .text          0x00000000        0x0 C:/Users/ground/Documents/GitHub/tevel2/GlobusSatProject/..//hal/at91/lib\libAt91D.a(twi_at91.o)
 .data          0x00000000        0x0 C:/Users/ground/Documents/GitHub/tevel2/GlobusSatProject/..//hal/at91/lib\libAt91D.a(twi_at91.o)
 .bss           0x00000000        0x0 C:/Users/ground/Documents/GitHub/tevel2/GlobusSatProject/..//hal/at91/lib\libAt91D.a(twi_at91.o)
 .text.TWI_ConfigureSlave
                0x00000000      0x100 C:/Users/ground/Documents/GitHub/tevel2/GlobusSatProject/..//hal/at91/lib\libAt91D.a(twi_at91.o)
 .text.TWI_Stop
                0x00000000       0x58 C:/Users/ground/Documents/GitHub/tevel2/GlobusSatProject/..//hal/at91/lib\libAt91D.a(twi_at91.o)
 .text.TWI_StartRead
                0x00000000      0x134 C:/Users/ground/Documents/GitHub/tevel2/GlobusSatProject/..//hal/at91/lib\libAt91D.a(twi_at91.o)
 .text.TWI_ReadByte
                0x00000000       0x5c C:/Users/ground/Documents/GitHub/tevel2/GlobusSatProject/..//hal/at91/lib\libAt91D.a(twi_at91.o)
 .text.TWI_WriteByte
                0x00000000       0x64 C:/Users/ground/Documents/GitHub/tevel2/GlobusSatProject/..//hal/at91/lib\libAt91D.a(twi_at91.o)
 .text.TWI_StartWrite
                0x00000000      0x140 C:/Users/ground/Documents/GitHub/tevel2/GlobusSatProject/..//hal/at91/lib\libAt91D.a(twi_at91.o)
 .text.TWI_ByteReceived
                0x00000000       0x3c C:/Users/ground/Documents/GitHub/tevel2/GlobusSatProject/..//hal/at91/lib\libAt91D.a(twi_at91.o)
 .text.TWI_ByteSent
                0x00000000       0x3c C:/Users/ground/Documents/GitHub/tevel2/GlobusSatProject/..//hal/at91/lib\libAt91D.a(twi_at91.o)
 .text.TWI_TransferComplete
                0x00000000       0x3c C:/Users/ground/Documents/GitHub/tevel2/GlobusSatProject/..//hal/at91/lib\libAt91D.a(twi_at91.o)
 .text.TWI_EnableIt
                0x00000000       0x90 C:/Users/ground/Documents/GitHub/tevel2/GlobusSatProject/..//hal/at91/lib\libAt91D.a(twi_at91.o)
 .text.TWI_DisableIt
                0x00000000       0x94 C:/Users/ground/Documents/GitHub/tevel2/GlobusSatProject/..//hal/at91/lib\libAt91D.a(twi_at91.o)
 .text.TWI_GetStatus
                0x00000000       0x5c C:/Users/ground/Documents/GitHub/tevel2/GlobusSatProject/..//hal/at91/lib\libAt91D.a(twi_at91.o)
 .text.TWI_SendSTOPCondition
                0x00000000       0x64 C:/Users/ground/Documents/GitHub/tevel2/GlobusSatProject/..//hal/at91/lib\libAt91D.a(twi_at91.o)
 .text          0x00000000        0x0 C:/Users/ground/Documents/GitHub/tevel2/GlobusSatProject/..//hal/at91/lib\libAt91D.a(ExitHandler.o)
 .data          0x00000000        0x0 C:/Users/ground/Documents/GitHub/tevel2/GlobusSatProject/..//hal/at91/lib\libAt91D.a(ExitHandler.o)
 .bss           0x00000000        0x0 C:/Users/ground/Documents/GitHub/tevel2/GlobusSatProject/..//hal/at91/lib\libAt91D.a(ExitHandler.o)
 .text          0x00000000        0x0 C:/Users/ground/Documents/GitHub/tevel2/GlobusSatProject/..//hal/at91/lib\libAt91D.a(board_cstartup.o)
 .data          0x00000000        0x0 C:/Users/ground/Documents/GitHub/tevel2/GlobusSatProject/..//hal/at91/lib\libAt91D.a(board_cstartup.o)
 .bss           0x00000000        0x0 C:/Users/ground/Documents/GitHub/tevel2/GlobusSatProject/..//hal/at91/lib\libAt91D.a(board_cstartup.o)
 .data          0x00000000        0x0 C:/Users/ground/Documents/GitHub/tevel2/GlobusSatProject/..//hal/at91/lib\libAt91D.a(cp15_asm.o)
 .bss           0x00000000        0x0 C:/Users/ground/Documents/GitHub/tevel2/GlobusSatProject/..//hal/at91/lib\libAt91D.a(cp15_asm.o)
 .text          0x00000000        0x0 C:/Users/ground/Documents/GitHub/tevel2/GlobusSatProject/..//hal/at91/lib\libAt91D.a(board_lowlevel.o)
 .data          0x00000000        0x0 C:/Users/ground/Documents/GitHub/tevel2/GlobusSatProject/..//hal/at91/lib\libAt91D.a(board_lowlevel.o)
 .bss           0x00000000        0x0 C:/Users/ground/Documents/GitHub/tevel2/GlobusSatProject/..//hal/at91/lib\libAt91D.a(board_lowlevel.o)
 .text.assignBusMatrixPriorities
                0x00000000       0x54 C:/Users/ground/Documents/GitHub/tevel2/GlobusSatProject/..//hal/at91/lib\libAt91D.a(board_lowlevel.o)
 .text          0x00000000        0x0 C:/Users/ground/Documents/GitHub/tevel2/GlobusSatProject/..//hal/at91/lib\libAt91D.a(board_memories.o)
 .data          0x00000000        0x0 C:/Users/ground/Documents/GitHub/tevel2/GlobusSatProject/..//hal/at91/lib\libAt91D.a(board_memories.o)
 .bss           0x00000000        0x0 C:/Users/ground/Documents/GitHub/tevel2/GlobusSatProject/..//hal/at91/lib\libAt91D.a(board_memories.o)
 .text.BOARD_RemapRom
                0x00000000       0x24 C:/Users/ground/Documents/GitHub/tevel2/GlobusSatProject/..//hal/at91/lib\libAt91D.a(board_memories.o)
 .text.BOARD_ConfigureSdram
                0x00000000      0x24c C:/Users/ground/Documents/GitHub/tevel2/GlobusSatProject/..//hal/at91/lib\libAt91D.a(board_memories.o)
 .text.BOARD_ConfigureNorFlash
                0x00000000       0xc4 C:/Users/ground/Documents/GitHub/tevel2/GlobusSatProject/..//hal/at91/lib\libAt91D.a(board_memories.o)
 .rodata        0x00000000        0xc C:/Users/ground/Documents/GitHub/tevel2/GlobusSatProject/..//hal/at91/lib\libAt91D.a(board_memories.o)
 .data          0x00000000        0x0 c:/isis/application/toolchain/bin/../lib/gcc/arm-none-eabi/4.7.4\libgcc.a(_udivsi3.o)
 .bss           0x00000000        0x0 c:/isis/application/toolchain/bin/../lib/gcc/arm-none-eabi/4.7.4\libgcc.a(_udivsi3.o)
 .data          0x00000000        0x0 c:/isis/application/toolchain/bin/../lib/gcc/arm-none-eabi/4.7.4\libgcc.a(_divsi3.o)
 .bss           0x00000000        0x0 c:/isis/application/toolchain/bin/../lib/gcc/arm-none-eabi/4.7.4\libgcc.a(_divsi3.o)
 .data          0x00000000        0x0 c:/isis/application/toolchain/bin/../lib/gcc/arm-none-eabi/4.7.4\libgcc.a(_dvmd_tls.o)
 .bss           0x00000000        0x0 c:/isis/application/toolchain/bin/../lib/gcc/arm-none-eabi/4.7.4\libgcc.a(_dvmd_tls.o)
 .data          0x00000000        0x0 c:/isis/application/toolchain/bin/../lib/gcc/arm-none-eabi/4.7.4\libgcc.a(_arm_addsubdf3.o)
 .bss           0x00000000        0x0 c:/isis/application/toolchain/bin/../lib/gcc/arm-none-eabi/4.7.4\libgcc.a(_arm_addsubdf3.o)
 .data          0x00000000        0x0 c:/isis/application/toolchain/bin/../lib/gcc/arm-none-eabi/4.7.4\libgcc.a(_arm_muldivdf3.o)
 .bss           0x00000000        0x0 c:/isis/application/toolchain/bin/../lib/gcc/arm-none-eabi/4.7.4\libgcc.a(_arm_muldivdf3.o)
 .data          0x00000000        0x0 c:/isis/application/toolchain/bin/../lib/gcc/arm-none-eabi/4.7.4\libgcc.a(_arm_cmpdf2.o)
 .bss           0x00000000        0x0 c:/isis/application/toolchain/bin/../lib/gcc/arm-none-eabi/4.7.4\libgcc.a(_arm_cmpdf2.o)
 .data          0x00000000        0x0 c:/isis/application/toolchain/bin/../lib/gcc/arm-none-eabi/4.7.4\libgcc.a(_arm_fixdfsi.o)
 .bss           0x00000000        0x0 c:/isis/application/toolchain/bin/../lib/gcc/arm-none-eabi/4.7.4\libgcc.a(_arm_fixdfsi.o)
 .data          0x00000000        0x0 c:/isis/application/toolchain/bin/../lib/gcc/arm-none-eabi/4.7.4\libgcc.a(_arm_fixunsdfsi.o)
 .bss           0x00000000        0x0 c:/isis/application/toolchain/bin/../lib/gcc/arm-none-eabi/4.7.4\libgcc.a(_arm_fixunsdfsi.o)
 .data          0x00000000        0x0 c:/isis/application/toolchain/bin/../lib/gcc/arm-none-eabi/4.7.4\libgcc.a(_arm_truncdfsf2.o)
 .bss           0x00000000        0x0 c:/isis/application/toolchain/bin/../lib/gcc/arm-none-eabi/4.7.4\libgcc.a(_arm_truncdfsf2.o)
 .data          0x00000000        0x0 c:/isis/application/toolchain/bin/../lib/gcc/arm-none-eabi/4.7.4\libgcc.a(_arm_addsubsf3.o)
 .bss           0x00000000        0x0 c:/isis/application/toolchain/bin/../lib/gcc/arm-none-eabi/4.7.4\libgcc.a(_arm_addsubsf3.o)
 .data          0x00000000        0x0 c:/isis/application/toolchain/bin/../lib/gcc/arm-none-eabi/4.7.4\libgcc.a(_arm_muldivsf3.o)
 .bss           0x00000000        0x0 c:/isis/application/toolchain/bin/../lib/gcc/arm-none-eabi/4.7.4\libgcc.a(_arm_muldivsf3.o)
 .text          0x00000000      0x114 c:/isis/application/toolchain/bin/../lib/gcc/arm-none-eabi/4.7.4\libgcc.a(_arm_cmpsf2.o)
 .data          0x00000000        0x0 c:/isis/application/toolchain/bin/../lib/gcc/arm-none-eabi/4.7.4\libgcc.a(_arm_cmpsf2.o)
 .bss           0x00000000        0x0 c:/isis/application/toolchain/bin/../lib/gcc/arm-none-eabi/4.7.4\libgcc.a(_arm_cmpsf2.o)
 .ARM.attributes
                0x00000000       0x18 c:/isis/application/toolchain/bin/../lib/gcc/arm-none-eabi/4.7.4\libgcc.a(_arm_cmpsf2.o)
 .data          0x00000000        0x0 c:/isis/application/toolchain/bin/../lib/gcc/arm-none-eabi/4.7.4\libgcc.a(_arm_fixunssfsi.o)
 .bss           0x00000000        0x0 c:/isis/application/toolchain/bin/../lib/gcc/arm-none-eabi/4.7.4\libgcc.a(_arm_fixunssfsi.o)
 .text          0x00000000        0x0 c:/isis/application/toolchain/bin/../lib/gcc/arm-none-eabi/4.7.4/../../../../arm-none-eabi/lib\libc_s.a(lib_a-errno.o)
 .data          0x00000000        0x0 c:/isis/application/toolchain/bin/../lib/gcc/arm-none-eabi/4.7.4/../../../../arm-none-eabi/lib\libc_s.a(lib_a-errno.o)
 .bss           0x00000000        0x0 c:/isis/application/toolchain/bin/../lib/gcc/arm-none-eabi/4.7.4/../../../../arm-none-eabi/lib\libc_s.a(lib_a-errno.o)
 .text          0x00000000        0x0 c:/isis/application/toolchain/bin/../lib/gcc/arm-none-eabi/4.7.4/../../../../arm-none-eabi/lib\libc_s.a(lib_a-fflush.o)
 .data          0x00000000        0x0 c:/isis/application/toolchain/bin/../lib/gcc/arm-none-eabi/4.7.4/../../../../arm-none-eabi/lib\libc_s.a(lib_a-fflush.o)
 .bss           0x00000000        0x0 c:/isis/application/toolchain/bin/../lib/gcc/arm-none-eabi/4.7.4/../../../../arm-none-eabi/lib\libc_s.a(lib_a-fflush.o)
 .text          0x00000000        0x0 c:/isis/application/toolchain/bin/../lib/gcc/arm-none-eabi/4.7.4/../../../../arm-none-eabi/lib\libc_s.a(lib_a-findfp.o)
 .data          0x00000000        0x0 c:/isis/application/toolchain/bin/../lib/gcc/arm-none-eabi/4.7.4/../../../../arm-none-eabi/lib\libc_s.a(lib_a-findfp.o)
 .bss           0x00000000        0x0 c:/isis/application/toolchain/bin/../lib/gcc/arm-none-eabi/4.7.4/../../../../arm-none-eabi/lib\libc_s.a(lib_a-findfp.o)
 .text.__fp_lock
                0x00000000        0x8 c:/isis/application/toolchain/bin/../lib/gcc/arm-none-eabi/4.7.4/../../../../arm-none-eabi/lib\libc_s.a(lib_a-findfp.o)
 .text.__fp_unlock
                0x00000000        0x8 c:/isis/application/toolchain/bin/../lib/gcc/arm-none-eabi/4.7.4/../../../../arm-none-eabi/lib\libc_s.a(lib_a-findfp.o)
 .text._cleanup
                0x00000000       0x10 c:/isis/application/toolchain/bin/../lib/gcc/arm-none-eabi/4.7.4/../../../../arm-none-eabi/lib\libc_s.a(lib_a-findfp.o)
 .text.__sinit_lock_acquire
                0x00000000        0x4 c:/isis/application/toolchain/bin/../lib/gcc/arm-none-eabi/4.7.4/../../../../arm-none-eabi/lib\libc_s.a(lib_a-findfp.o)
 .text.__sinit_lock_release
                0x00000000        0x4 c:/isis/application/toolchain/bin/../lib/gcc/arm-none-eabi/4.7.4/../../../../arm-none-eabi/lib\libc_s.a(lib_a-findfp.o)
 .text.__fp_lock_all
                0x00000000       0x24 c:/isis/application/toolchain/bin/../lib/gcc/arm-none-eabi/4.7.4/../../../../arm-none-eabi/lib\libc_s.a(lib_a-findfp.o)
 .text.__fp_unlock_all
                0x00000000       0x24 c:/isis/application/toolchain/bin/../lib/gcc/arm-none-eabi/4.7.4/../../../../arm-none-eabi/lib\libc_s.a(lib_a-findfp.o)
 .text          0x00000000        0x0 c:/isis/application/toolchain/bin/../lib/gcc/arm-none-eabi/4.7.4/../../../../arm-none-eabi/lib\libc_s.a(lib_a-fwalk.o)
 .data          0x00000000        0x0 c:/isis/application/toolchain/bin/../lib/gcc/arm-none-eabi/4.7.4/../../../../arm-none-eabi/lib\libc_s.a(lib_a-fwalk.o)
 .bss           0x00000000        0x0 c:/isis/application/toolchain/bin/../lib/gcc/arm-none-eabi/4.7.4/../../../../arm-none-eabi/lib\libc_s.a(lib_a-fwalk.o)
 .text._fwalk   0x00000000       0x78 c:/isis/application/toolchain/bin/../lib/gcc/arm-none-eabi/4.7.4/../../../../arm-none-eabi/lib\libc_s.a(lib_a-fwalk.o)
 .text          0x00000000        0x0 c:/isis/application/toolchain/bin/../lib/gcc/arm-none-eabi/4.7.4/../../../../arm-none-eabi/lib\libc_s.a(lib_a-memcmp.o)
 .data          0x00000000        0x0 c:/isis/application/toolchain/bin/../lib/gcc/arm-none-eabi/4.7.4/../../../../arm-none-eabi/lib\libc_s.a(lib_a-memcmp.o)
 .bss           0x00000000        0x0 c:/isis/application/toolchain/bin/../lib/gcc/arm-none-eabi/4.7.4/../../../../arm-none-eabi/lib\libc_s.a(lib_a-memcmp.o)
 .text          0x00000000        0x0 c:/isis/application/toolchain/bin/../lib/gcc/arm-none-eabi/4.7.4/../../../../arm-none-eabi/lib\libc_s.a(lib_a-printf.o)
 .data          0x00000000        0x0 c:/isis/application/toolchain/bin/../lib/gcc/arm-none-eabi/4.7.4/../../../../arm-none-eabi/lib\libc_s.a(lib_a-printf.o)
 .bss           0x00000000        0x0 c:/isis/application/toolchain/bin/../lib/gcc/arm-none-eabi/4.7.4/../../../../arm-none-eabi/lib\libc_s.a(lib_a-printf.o)
 .text._printf_r
                0x00000000       0x40 c:/isis/application/toolchain/bin/../lib/gcc/arm-none-eabi/4.7.4/../../../../arm-none-eabi/lib\libc_s.a(lib_a-printf.o)
 .text          0x00000000        0x0 c:/isis/application/toolchain/bin/../lib/gcc/arm-none-eabi/4.7.4/../../../../arm-none-eabi/lib\libc_s.a(lib_a-puts.o)
 .data          0x00000000        0x0 c:/isis/application/toolchain/bin/../lib/gcc/arm-none-eabi/4.7.4/../../../../arm-none-eabi/lib\libc_s.a(lib_a-puts.o)
 .bss           0x00000000        0x0 c:/isis/application/toolchain/bin/../lib/gcc/arm-none-eabi/4.7.4/../../../../arm-none-eabi/lib\libc_s.a(lib_a-puts.o)
 .text._puts_r  0x00000000       0x58 c:/isis/application/toolchain/bin/../lib/gcc/arm-none-eabi/4.7.4/../../../../arm-none-eabi/lib\libc_s.a(lib_a-puts.o)
 .text.puts     0x00000000       0x64 c:/isis/application/toolchain/bin/../lib/gcc/arm-none-eabi/4.7.4/../../../../arm-none-eabi/lib\libc_s.a(lib_a-puts.o)
 .ARM.attributes
                0x00000000       0x30 c:/isis/application/toolchain/bin/../lib/gcc/arm-none-eabi/4.7.4/../../../../arm-none-eabi/lib\libc_s.a(lib_a-puts.o)
 .debug_frame   0x00000000       0x48 c:/isis/application/toolchain/bin/../lib/gcc/arm-none-eabi/4.7.4/../../../../arm-none-eabi/lib\libc_s.a(lib_a-puts.o)
 .text          0x00000000        0x0 c:/isis/application/toolchain/bin/../lib/gcc/arm-none-eabi/4.7.4/../../../../arm-none-eabi/lib\libc_s.a(lib_a-stdio.o)
 .data          0x00000000        0x0 c:/isis/application/toolchain/bin/../lib/gcc/arm-none-eabi/4.7.4/../../../../arm-none-eabi/lib\libc_s.a(lib_a-stdio.o)
 .bss           0x00000000        0x0 c:/isis/application/toolchain/bin/../lib/gcc/arm-none-eabi/4.7.4/../../../../arm-none-eabi/lib\libc_s.a(lib_a-stdio.o)
 .text.__seofread
                0x00000000        0x8 c:/isis/application/toolchain/bin/../lib/gcc/arm-none-eabi/4.7.4/../../../../arm-none-eabi/lib\libc_s.a(lib_a-stdio.o)
 .text          0x00000000        0x0 c:/isis/application/toolchain/bin/../lib/gcc/arm-none-eabi/4.7.4/../../../../arm-none-eabi/lib\libc_s.a(lib_a-strcpy.o)
 .data          0x00000000        0x0 c:/isis/application/toolchain/bin/../lib/gcc/arm-none-eabi/4.7.4/../../../../arm-none-eabi/lib\libc_s.a(lib_a-strcpy.o)
 .bss           0x00000000        0x0 c:/isis/application/toolchain/bin/../lib/gcc/arm-none-eabi/4.7.4/../../../../arm-none-eabi/lib\libc_s.a(lib_a-strcpy.o)
 .text          0x00000000        0x0 c:/isis/application/toolchain/bin/../lib/gcc/arm-none-eabi/4.7.4/../../../../arm-none-eabi/lib\libc_s.a(lib_a-syswrite.o)
 .data          0x00000000        0x0 c:/isis/application/toolchain/bin/../lib/gcc/arm-none-eabi/4.7.4/../../../../arm-none-eabi/lib\libc_s.a(lib_a-syswrite.o)
 .bss           0x00000000        0x0 c:/isis/application/toolchain/bin/../lib/gcc/arm-none-eabi/4.7.4/../../../../arm-none-eabi/lib\libc_s.a(lib_a-syswrite.o)
 .text          0x00000000        0x0 c:/isis/application/toolchain/bin/../lib/gcc/arm-none-eabi/4.7.4/../../../../arm-none-eabi/lib\libc_s.a(lib_a-vfprintf.o)
 .data          0x00000000        0x0 c:/isis/application/toolchain/bin/../lib/gcc/arm-none-eabi/4.7.4/../../../../arm-none-eabi/lib\libc_s.a(lib_a-vfprintf.o)
 .bss           0x00000000        0x0 c:/isis/application/toolchain/bin/../lib/gcc/arm-none-eabi/4.7.4/../../../../arm-none-eabi/lib\libc_s.a(lib_a-vfprintf.o)
 .text.__sprint_r
                0x00000000       0xb0 c:/isis/application/toolchain/bin/../lib/gcc/arm-none-eabi/4.7.4/../../../../arm-none-eabi/lib\libc_s.a(lib_a-vfprintf.o)
 .text.vfprintf
                0x00000000       0x2c c:/isis/application/toolchain/bin/../lib/gcc/arm-none-eabi/4.7.4/../../../../arm-none-eabi/lib\libc_s.a(lib_a-vfprintf.o)
 .text          0x00000000        0x0 c:/isis/application/toolchain/bin/../lib/gcc/arm-none-eabi/4.7.4/../../../../arm-none-eabi/lib\libc_s.a(lib_a-vsprintf.o)
 .data          0x00000000        0x0 c:/isis/application/toolchain/bin/../lib/gcc/arm-none-eabi/4.7.4/../../../../arm-none-eabi/lib\libc_s.a(lib_a-vsprintf.o)
 .bss           0x00000000        0x0 c:/isis/application/toolchain/bin/../lib/gcc/arm-none-eabi/4.7.4/../../../../arm-none-eabi/lib\libc_s.a(lib_a-vsprintf.o)
 .text          0x00000000        0x0 c:/isis/application/toolchain/bin/../lib/gcc/arm-none-eabi/4.7.4/../../../../arm-none-eabi/lib\libc_s.a(lib_a-wbuf.o)
 .data          0x00000000        0x0 c:/isis/application/toolchain/bin/../lib/gcc/arm-none-eabi/4.7.4/../../../../arm-none-eabi/lib\libc_s.a(lib_a-wbuf.o)
 .bss           0x00000000        0x0 c:/isis/application/toolchain/bin/../lib/gcc/arm-none-eabi/4.7.4/../../../../arm-none-eabi/lib\libc_s.a(lib_a-wbuf.o)
 .text.__swbuf  0x00000000       0x1c c:/isis/application/toolchain/bin/../lib/gcc/arm-none-eabi/4.7.4/../../../../arm-none-eabi/lib\libc_s.a(lib_a-wbuf.o)
 .text          0x00000000        0x0 c:/isis/application/toolchain/bin/../lib/gcc/arm-none-eabi/4.7.4/../../../../arm-none-eabi/lib\libc_s.a(lib_a-writer.o)
 .data          0x00000000        0x0 c:/isis/application/toolchain/bin/../lib/gcc/arm-none-eabi/4.7.4/../../../../arm-none-eabi/lib\libc_s.a(lib_a-writer.o)
 .bss           0x00000000        0x0 c:/isis/application/toolchain/bin/../lib/gcc/arm-none-eabi/4.7.4/../../../../arm-none-eabi/lib\libc_s.a(lib_a-writer.o)
 .text          0x00000000        0x0 c:/isis/application/toolchain/bin/../lib/gcc/arm-none-eabi/4.7.4/../../../../arm-none-eabi/lib\libc_s.a(lib_a-wsetup.o)
 .data          0x00000000        0x0 c:/isis/application/toolchain/bin/../lib/gcc/arm-none-eabi/4.7.4/../../../../arm-none-eabi/lib\libc_s.a(lib_a-wsetup.o)
 .bss           0x00000000        0x0 c:/isis/application/toolchain/bin/../lib/gcc/arm-none-eabi/4.7.4/../../../../arm-none-eabi/lib\libc_s.a(lib_a-wsetup.o)
 .text          0x00000000        0x0 c:/isis/application/toolchain/bin/../lib/gcc/arm-none-eabi/4.7.4/../../../../arm-none-eabi/lib\libc_s.a(lib_a-closer.o)
 .data          0x00000000        0x0 c:/isis/application/toolchain/bin/../lib/gcc/arm-none-eabi/4.7.4/../../../../arm-none-eabi/lib\libc_s.a(lib_a-closer.o)
 .bss           0x00000000        0x0 c:/isis/application/toolchain/bin/../lib/gcc/arm-none-eabi/4.7.4/../../../../arm-none-eabi/lib\libc_s.a(lib_a-closer.o)
 .text          0x00000000        0x0 c:/isis/application/toolchain/bin/../lib/gcc/arm-none-eabi/4.7.4/../../../../arm-none-eabi/lib\libc_s.a(lib_a-fputwc.o)
 .data          0x00000000        0x0 c:/isis/application/toolchain/bin/../lib/gcc/arm-none-eabi/4.7.4/../../../../arm-none-eabi/lib\libc_s.a(lib_a-fputwc.o)
 .bss           0x00000000        0x0 c:/isis/application/toolchain/bin/../lib/gcc/arm-none-eabi/4.7.4/../../../../arm-none-eabi/lib\libc_s.a(lib_a-fputwc.o)
 .text._fputwc_r
                0x00000000      0x138 c:/isis/application/toolchain/bin/../lib/gcc/arm-none-eabi/4.7.4/../../../../arm-none-eabi/lib\libc_s.a(lib_a-fputwc.o)
 .text.fputwc   0x00000000       0x84 c:/isis/application/toolchain/bin/../lib/gcc/arm-none-eabi/4.7.4/../../../../arm-none-eabi/lib\libc_s.a(lib_a-fputwc.o)
 .ARM.attributes
                0x00000000       0x30 c:/isis/application/toolchain/bin/../lib/gcc/arm-none-eabi/4.7.4/../../../../arm-none-eabi/lib\libc_s.a(lib_a-fputwc.o)
 .debug_frame   0x00000000       0x50 c:/isis/application/toolchain/bin/../lib/gcc/arm-none-eabi/4.7.4/../../../../arm-none-eabi/lib\libc_s.a(lib_a-fputwc.o)
 .text          0x00000000        0x0 c:/isis/application/toolchain/bin/../lib/gcc/arm-none-eabi/4.7.4/../../../../arm-none-eabi/lib\libc_s.a(lib_a-fvwrite.o)
 .data          0x00000000        0x0 c:/isis/application/toolchain/bin/../lib/gcc/arm-none-eabi/4.7.4/../../../../arm-none-eabi/lib\libc_s.a(lib_a-fvwrite.o)
 .bss           0x00000000        0x0 c:/isis/application/toolchain/bin/../lib/gcc/arm-none-eabi/4.7.4/../../../../arm-none-eabi/lib\libc_s.a(lib_a-fvwrite.o)
 .text.__sfvwrite_r
                0x00000000      0x460 c:/isis/application/toolchain/bin/../lib/gcc/arm-none-eabi/4.7.4/../../../../arm-none-eabi/lib\libc_s.a(lib_a-fvwrite.o)
 .ARM.attributes
                0x00000000       0x30 c:/isis/application/toolchain/bin/../lib/gcc/arm-none-eabi/4.7.4/../../../../arm-none-eabi/lib\libc_s.a(lib_a-fvwrite.o)
 .debug_frame   0x00000000       0x38 c:/isis/application/toolchain/bin/../lib/gcc/arm-none-eabi/4.7.4/../../../../arm-none-eabi/lib\libc_s.a(lib_a-fvwrite.o)
 .text          0x00000000        0x0 c:/isis/application/toolchain/bin/../lib/gcc/arm-none-eabi/4.7.4/../../../../arm-none-eabi/lib\libc_s.a(lib_a-lseekr.o)
 .data          0x00000000        0x0 c:/isis/application/toolchain/bin/../lib/gcc/arm-none-eabi/4.7.4/../../../../arm-none-eabi/lib\libc_s.a(lib_a-lseekr.o)
 .bss           0x00000000        0x0 c:/isis/application/toolchain/bin/../lib/gcc/arm-none-eabi/4.7.4/../../../../arm-none-eabi/lib\libc_s.a(lib_a-lseekr.o)
 .text          0x00000000        0x0 c:/isis/application/toolchain/bin/../lib/gcc/arm-none-eabi/4.7.4/../../../../arm-none-eabi/lib\libc_s.a(lib_a-makebuf.o)
 .data          0x00000000        0x0 c:/isis/application/toolchain/bin/../lib/gcc/arm-none-eabi/4.7.4/../../../../arm-none-eabi/lib\libc_s.a(lib_a-makebuf.o)
 .bss           0x00000000        0x0 c:/isis/application/toolchain/bin/../lib/gcc/arm-none-eabi/4.7.4/../../../../arm-none-eabi/lib\libc_s.a(lib_a-makebuf.o)
 .text          0x00000000        0x0 c:/isis/application/toolchain/bin/../lib/gcc/arm-none-eabi/4.7.4/../../../../arm-none-eabi/lib\libc_s.a(lib_a-putc.o)
 .data          0x00000000        0x0 c:/isis/application/toolchain/bin/../lib/gcc/arm-none-eabi/4.7.4/../../../../arm-none-eabi/lib\libc_s.a(lib_a-putc.o)
 .bss           0x00000000        0x0 c:/isis/application/toolchain/bin/../lib/gcc/arm-none-eabi/4.7.4/../../../../arm-none-eabi/lib\libc_s.a(lib_a-putc.o)
 .text._putc_r  0x00000000       0xd0 c:/isis/application/toolchain/bin/../lib/gcc/arm-none-eabi/4.7.4/../../../../arm-none-eabi/lib\libc_s.a(lib_a-putc.o)
 .text.putc     0x00000000       0x1c c:/isis/application/toolchain/bin/../lib/gcc/arm-none-eabi/4.7.4/../../../../arm-none-eabi/lib\libc_s.a(lib_a-putc.o)
 .ARM.attributes
                0x00000000       0x30 c:/isis/application/toolchain/bin/../lib/gcc/arm-none-eabi/4.7.4/../../../../arm-none-eabi/lib\libc_s.a(lib_a-putc.o)
 .debug_frame   0x00000000       0x3c c:/isis/application/toolchain/bin/../lib/gcc/arm-none-eabi/4.7.4/../../../../arm-none-eabi/lib\libc_s.a(lib_a-putc.o)
 .text          0x00000000        0x0 c:/isis/application/toolchain/bin/../lib/gcc/arm-none-eabi/4.7.4/../../../../arm-none-eabi/lib\libc_s.a(lib_a-readr.o)
 .data          0x00000000        0x0 c:/isis/application/toolchain/bin/../lib/gcc/arm-none-eabi/4.7.4/../../../../arm-none-eabi/lib\libc_s.a(lib_a-readr.o)
 .bss           0x00000000        0x0 c:/isis/application/toolchain/bin/../lib/gcc/arm-none-eabi/4.7.4/../../../../arm-none-eabi/lib\libc_s.a(lib_a-readr.o)
 .text          0x00000000        0x0 c:/isis/application/toolchain/bin/../lib/gcc/arm-none-eabi/4.7.4/../../../../arm-none-eabi/lib\libc_s.a(lib_a-wcrtomb.o)
 .data          0x00000000        0x0 c:/isis/application/toolchain/bin/../lib/gcc/arm-none-eabi/4.7.4/../../../../arm-none-eabi/lib\libc_s.a(lib_a-wcrtomb.o)
 .bss           0x00000000        0x0 c:/isis/application/toolchain/bin/../lib/gcc/arm-none-eabi/4.7.4/../../../../arm-none-eabi/lib\libc_s.a(lib_a-wcrtomb.o)
 .text._wcrtomb_r
                0x00000000       0x84 c:/isis/application/toolchain/bin/../lib/gcc/arm-none-eabi/4.7.4/../../../../arm-none-eabi/lib\libc_s.a(lib_a-wcrtomb.o)
 .text.wcrtomb  0x00000000       0x2c c:/isis/application/toolchain/bin/../lib/gcc/arm-none-eabi/4.7.4/../../../../arm-none-eabi/lib\libc_s.a(lib_a-wcrtomb.o)
 .ARM.attributes
                0x00000000       0x30 c:/isis/application/toolchain/bin/../lib/gcc/arm-none-eabi/4.7.4/../../../../arm-none-eabi/lib\libc_s.a(lib_a-wcrtomb.o)
 .debug_frame   0x00000000       0x4c c:/isis/application/toolchain/bin/../lib/gcc/arm-none-eabi/4.7.4/../../../../arm-none-eabi/lib\libc_s.a(lib_a-wcrtomb.o)
 .text          0x00000000        0x0 c:/isis/application/toolchain/bin/../lib/gcc/arm-none-eabi/4.7.4/../../../../arm-none-eabi/lib\libc_s.a(lib_a-wctomb_r.o)
 .data          0x00000000        0x0 c:/isis/application/toolchain/bin/../lib/gcc/arm-none-eabi/4.7.4/../../../../arm-none-eabi/lib\libc_s.a(lib_a-wctomb_r.o)
 .bss           0x00000000        0x0 c:/isis/application/toolchain/bin/../lib/gcc/arm-none-eabi/4.7.4/../../../../arm-none-eabi/lib\libc_s.a(lib_a-wctomb_r.o)
 .text.__ascii_wctomb
                0x00000000       0x2c c:/isis/application/toolchain/bin/../lib/gcc/arm-none-eabi/4.7.4/../../../../arm-none-eabi/lib\libc_s.a(lib_a-wctomb_r.o)
 .text._wctomb_r
                0x00000000       0x48 c:/isis/application/toolchain/bin/../lib/gcc/arm-none-eabi/4.7.4/../../../../arm-none-eabi/lib\libc_s.a(lib_a-wctomb_r.o)
 .data.__wctomb
                0x00000000        0x4 c:/isis/application/toolchain/bin/../lib/gcc/arm-none-eabi/4.7.4/../../../../arm-none-eabi/lib\libc_s.a(lib_a-wctomb_r.o)
 .ARM.attributes
                0x00000000       0x30 c:/isis/application/toolchain/bin/../lib/gcc/arm-none-eabi/4.7.4/../../../../arm-none-eabi/lib\libc_s.a(lib_a-wctomb_r.o)
 .debug_frame   0x00000000       0x44 c:/isis/application/toolchain/bin/../lib/gcc/arm-none-eabi/4.7.4/../../../../arm-none-eabi/lib\libc_s.a(lib_a-wctomb_r.o)
 .text          0x00000000        0x0 c:/isis/application/toolchain/bin/../lib/gcc/arm-none-eabi/4.7.4/../../../../arm-none-eabi/lib\libc_s.a(lib_a-fstatr.o)
 .data          0x00000000        0x0 c:/isis/application/toolchain/bin/../lib/gcc/arm-none-eabi/4.7.4/../../../../arm-none-eabi/lib\libc_s.a(lib_a-fstatr.o)
 .bss           0x00000000        0x0 c:/isis/application/toolchain/bin/../lib/gcc/arm-none-eabi/4.7.4/../../../../arm-none-eabi/lib\libc_s.a(lib_a-fstatr.o)
 .text          0x00000000        0x0 c:/isis/application/toolchain/bin/../lib/gcc/arm-none-eabi/4.7.4/../../../../arm-none-eabi/lib\libc_s.a(lib_a-isattyr.o)
 .data          0x00000000        0x0 c:/isis/application/toolchain/bin/../lib/gcc/arm-none-eabi/4.7.4/../../../../arm-none-eabi/lib\libc_s.a(lib_a-isattyr.o)
 .bss           0x00000000        0x0 c:/isis/application/toolchain/bin/../lib/gcc/arm-none-eabi/4.7.4/../../../../arm-none-eabi/lib\libc_s.a(lib_a-isattyr.o)

Memory Configuration

Name             Origin             Length             Attributes
sram0            0x00200000         0x00004000         w !xr
sram1            0x00300000         0x00004000         w !xr
sdram            0x20000000         0x02000000         w !xr
*default*        0x00000000         0xffffffff

Linker script and memory map

LOAD c:/isis/application/toolchain/bin/../lib/gcc/arm-none-eabi/4.7.4/../../../../arm-none-eabi/lib\libc_s.a
LOAD ./src/TestingDemos/CommandsTestingDemo.o
LOAD ./src/TestingDemos/EpsTestingDemo.o
LOAD ./src/TestingDemos/FileSystemTestingDemo.o
LOAD ./src/TestingDemos/MainTest.o
LOAD ./src/TestingDemos/MaintenanceTestingDemo.o
LOAD ./src/TestingDemos/TelemetryTestingDemo.o
LOAD ./src/TestingDemos/TrxvuTestingDemo.o
LOAD ./src/SubSystemModules/PowerManagment/EPS.o
LOAD ./src/SubSystemModules/PowerManagment/EPSOperationModes.o
LOAD ./src/SubSystemModules/Payload/payload_drivers.o
LOAD ./src/SubSystemModules/Maintenance/Log.o
LOAD ./src/SubSystemModules/Maintenance/Maintenance.o
LOAD ./src/SubSystemModules/Housekepping/Dump.o
LOAD ./src/SubSystemModules/Housekepping/TelemetryCollector.o
LOAD ./src/SubSystemModules/Communication/SubsystemCommands/EPS_Commands.o
LOAD ./src/SubSystemModules/Communication/SubsystemCommands/FS_Commands.o
LOAD ./src/SubSystemModules/Communication/SubsystemCommands/Maintanence_Commands.o
LOAD ./src/SubSystemModules/Communication/SubsystemCommands/TRXVU_Commands.o
LOAD ./src/SubSystemModules/Communication/AckHandler.o
LOAD ./src/SubSystemModules/Communication/ActUponCommand.o
LOAD ./src/SubSystemModules/Communication/Beacon.o
LOAD ./src/SubSystemModules/Communication/CommandDictionary.o
LOAD ./src/SubSystemModules/Communication/SatCommandHandler.o
LOAD ./src/SubSystemModules/Communication/SatDataTx.o
LOAD ./src/SubSystemModules/Communication/TRXVU.o
LOAD ./src/SubSystemModules/Communication/Transponder.o
LOAD ./src/InitSystem.o
LOAD ./src/TLM_management.o
LOAD ./src/main.o
LOAD C:/Users/ground/Documents/GitHub/tevel2/GlobusSatProject/..//hal/hal/lib\libHALD.a
LOAD C:/Users/ground/Documents/GitHub/tevel2/GlobusSatProject/..//hal/hcc/lib\libHCCD.a
LOAD C:/Users/ground/Documents/GitHub/tevel2/GlobusSatProject/..//satellite-subsystems/satellite-subsystems/lib\libSatelliteSubsystemsD.a
LOAD C:/Users/ground/Documents/GitHub/tevel2/GlobusSatProject/..//hal/freertos/lib\libFreeRTOSD.a
LOAD C:/Users/ground/Documents/GitHub/tevel2/GlobusSatProject/..//hal/at91/lib\libAt91D.a
START GROUP
LOAD c:/isis/application/toolchain/bin/../lib/gcc/arm-none-eabi/4.7.4\libgcc.a
LOAD c:/isis/application/toolchain/bin/../lib/gcc/arm-none-eabi/4.7.4/../../../../arm-none-eabi/lib\libc_s.a
END GROUP

.fixed          0x20000000    0x3a88c
                0x20000000                . = ALIGN (0x4)
                0x20000000                _sfixed = .
 *(.startup)
 .startup       0x20000000      0x184 C:/Users/ground/Documents/GitHub/tevel2/GlobusSatProject/..//hal/at91/lib\libAt91D.a(board_cstartup.o)
                0x20000000                entry
 *(.text)
 .text          0x20000184       0x64 C:/Users/ground/Documents/GitHub/tevel2/GlobusSatProject/..//hal/at91/lib\libAt91D.a(cp15_asm.o)
                0x20000184                _readControlRegister
                0x20000190                _writeControlRegister
                0x20000198                _waitForInterrupt
                0x200001a4                _writeTTB
                0x200001ac                _writeDomain
                0x200001b4                _writeITLBLockdown
                0x200001bc                _prefetchICacheLine
                0x200001c4                _flushDCache
                0x200001d0                _flushWriteBuffer
                0x200001dc                _invalidateIDTLBs
 .text          0x200001e8      0x114 c:/isis/application/toolchain/bin/../lib/gcc/arm-none-eabi/4.7.4\libgcc.a(_udivsi3.o)
                0x200001e8                __aeabi_uidiv
                0x200001e8                __udivsi3
                0x200002dc                __aeabi_uidivmod
 .text          0x200002fc      0x148 c:/isis/application/toolchain/bin/../lib/gcc/arm-none-eabi/4.7.4\libgcc.a(_divsi3.o)
                0x200002fc                __divsi3
                0x200002fc                __aeabi_idiv
                0x20000424                __aeabi_idivmod
 .text          0x20000444        0x4 c:/isis/application/toolchain/bin/../lib/gcc/arm-none-eabi/4.7.4\libgcc.a(_dvmd_tls.o)
                0x20000444                __aeabi_idiv0
                0x20000444                __aeabi_ldiv0
 .text          0x20000448      0x41c c:/isis/application/toolchain/bin/../lib/gcc/arm-none-eabi/4.7.4\libgcc.a(_arm_addsubdf3.o)
                0x20000448                __aeabi_drsub
                0x20000450                __aeabi_dsub
                0x20000450                __subdf3
                0x20000454                __aeabi_dadd
                0x20000454                __adddf3
                0x20000764                __floatunsidf
                0x20000764                __aeabi_ui2d
                0x20000788                __floatsidf
                0x20000788                __aeabi_i2d
                0x200007b0                __aeabi_f2d
                0x200007b0                __extendsfdf2
                0x200007f0                __floatundidf
                0x200007f0                __aeabi_ul2d
                0x20000804                __floatdidf
                0x20000804                __aeabi_l2d
 .text          0x20000864      0x49c c:/isis/application/toolchain/bin/../lib/gcc/arm-none-eabi/4.7.4\libgcc.a(_arm_muldivdf3.o)
                0x20000864                __aeabi_dmul
                0x20000864                __muldf3
                0x20000af4                __divdf3
                0x20000af4                __aeabi_ddiv
 .text          0x20000d00      0x144 c:/isis/application/toolchain/bin/../lib/gcc/arm-none-eabi/4.7.4\libgcc.a(_arm_cmpdf2.o)
                0x20000d00                __gtdf2
                0x20000d00                __gedf2
                0x20000d08                __ltdf2
                0x20000d08                __ledf2
                0x20000d10                __nedf2
                0x20000d10                __eqdf2
                0x20000d10                __cmpdf2
                0x20000d98                __aeabi_cdrcmple
                0x20000db4                __aeabi_cdcmpeq
                0x20000db4                __aeabi_cdcmple
                0x20000dcc                __aeabi_dcmpeq
                0x20000de4                __aeabi_dcmplt
                0x20000dfc                __aeabi_dcmple
                0x20000e14                __aeabi_dcmpge
                0x20000e2c                __aeabi_dcmpgt
 .text          0x20000e44       0x5c c:/isis/application/toolchain/bin/../lib/gcc/arm-none-eabi/4.7.4\libgcc.a(_arm_fixdfsi.o)
                0x20000e44                __aeabi_d2iz
                0x20000e44                __fixdfsi
 .text          0x20000ea0       0x54 c:/isis/application/toolchain/bin/../lib/gcc/arm-none-eabi/4.7.4\libgcc.a(_arm_fixunsdfsi.o)
                0x20000ea0                __aeabi_d2uiz
                0x20000ea0                __fixunsdfsi
 .text          0x20000ef4       0xa0 c:/isis/application/toolchain/bin/../lib/gcc/arm-none-eabi/4.7.4\libgcc.a(_arm_truncdfsf2.o)
                0x20000ef4                __truncdfsf2
                0x20000ef4                __aeabi_d2f
 .text          0x20000f94      0x2ac c:/isis/application/toolchain/bin/../lib/gcc/arm-none-eabi/4.7.4\libgcc.a(_arm_addsubsf3.o)
                0x20000f94                __aeabi_frsub
                0x20000f9c                __subsf3
                0x20000f9c                __aeabi_fsub
                0x20000fa0                __aeabi_fadd
                0x20000fa0                __addsf3
                0x2000115c                __aeabi_ui2f
                0x2000115c                __floatunsisf
                0x20001164                __aeabi_i2f
                0x20001164                __floatsisf
                0x20001184                __aeabi_ul2f
                0x20001184                __floatundisf
                0x20001194                __aeabi_l2f
                0x20001194                __floatdisf
 .text          0x20001240      0x2f8 c:/isis/application/toolchain/bin/../lib/gcc/arm-none-eabi/4.7.4\libgcc.a(_arm_muldivsf3.o)
                0x20001240                __mulsf3
                0x20001240                __aeabi_fmul
                0x200013d8                __aeabi_fdiv
                0x200013d8                __divsf3
 .text          0x20001538       0x54 c:/isis/application/toolchain/bin/../lib/gcc/arm-none-eabi/4.7.4\libgcc.a(_arm_fixunssfsi.o)
                0x20001538                __fixunssfsi
                0x20001538                __aeabi_f2uiz
 *(.text*)
 .text.__cvt    0x2000158c      0x138 c:/isis/application/toolchain/bin/../lib/gcc/arm-none-eabi/4.7.4/../../../../arm-none-eabi/lib\libc_s.a(lib_a-vfprintf_float.o)
                0x2000158c                __cvt
 .text.__exponent
                0x200016c4       0xa8 c:/isis/application/toolchain/bin/../lib/gcc/arm-none-eabi/4.7.4/../../../../arm-none-eabi/lib\libc_s.a(lib_a-vfprintf_float.o)
                0x200016c4                __exponent
 .text._printf_float
                0x2000176c      0x7dc c:/isis/application/toolchain/bin/../lib/gcc/arm-none-eabi/4.7.4/../../../../arm-none-eabi/lib\libc_s.a(lib_a-vfprintf_float.o)
                0x2000176c                _printf_float
 .text._printf_common
                0x20001f48      0x174 c:/isis/application/toolchain/bin/../lib/gcc/arm-none-eabi/4.7.4/../../../../arm-none-eabi/lib\libc_s.a(lib_a-vfprintf_i.o)
                0x20001f48                _printf_common
 .text._printf_i
                0x200020bc      0x3c4 c:/isis/application/toolchain/bin/../lib/gcc/arm-none-eabi/4.7.4/../../../../arm-none-eabi/lib\libc_s.a(lib_a-vfprintf_i.o)
                0x200020bc                _printf_i
 .text._scanf_float
                0x20002480      0x5f4 c:/isis/application/toolchain/bin/../lib/gcc/arm-none-eabi/4.7.4/../../../../arm-none-eabi/lib\libc_s.a(lib_a-vfscanf_float.o)
                0x20002480                _scanf_float
 .text.quorem   0x20002a74      0x1ac c:/isis/application/toolchain/bin/../lib/gcc/arm-none-eabi/4.7.4/../../../../arm-none-eabi/lib\libc_s.a(lib_a-dtoa.o)
 .text._dtoa_r  0x20002c20     0x1268 c:/isis/application/toolchain/bin/../lib/gcc/arm-none-eabi/4.7.4/../../../../arm-none-eabi/lib\libc_s.a(lib_a-dtoa.o)
                0x20002c20                _dtoa_r
 .text._localeconv_r
                0x20003e88        0xc c:/isis/application/toolchain/bin/../lib/gcc/arm-none-eabi/4.7.4/../../../../arm-none-eabi/lib\libc_s.a(lib_a-locale.o)
                0x20003e88                _localeconv_r
 .text.malloc   0x20003e94       0x20 c:/isis/application/toolchain/bin/../lib/gcc/arm-none-eabi/4.7.4/../../../../arm-none-eabi/lib\libc_s.a(lib_a-malloc.o)
                0x20003e94                malloc
 .text.free     0x20003eb4       0x20 c:/isis/application/toolchain/bin/../lib/gcc/arm-none-eabi/4.7.4/../../../../arm-none-eabi/lib\libc_s.a(lib_a-malloc.o)
                0x20003eb4                free
 .text._malloc_r
                0x20003ed4       0xfc c:/isis/application/toolchain/bin/../lib/gcc/arm-none-eabi/4.7.4/../../../../arm-none-eabi/lib\libc_s.a(lib_a-mallocr.o)
                0x20003ed4                _malloc_r
 .text.memcpy   0x20003fd0       0x20 c:/isis/application/toolchain/bin/../lib/gcc/arm-none-eabi/4.7.4/../../../../arm-none-eabi/lib\libc_s.a(lib_a-memcpy.o)
                0x20003fd0                memcpy
 .text._Balloc  0x20003ff0       0xcc c:/isis/application/toolchain/bin/../lib/gcc/arm-none-eabi/4.7.4/../../../../arm-none-eabi/lib\libc_s.a(lib_a-mprec.o)
                0x20003ff0                _Balloc
 .text._Bfree   0x200040bc       0x5c c:/isis/application/toolchain/bin/../lib/gcc/arm-none-eabi/4.7.4/../../../../arm-none-eabi/lib\libc_s.a(lib_a-mprec.o)
                0x200040bc                _Bfree
 .text.__multadd
                0x20004118       0xbc c:/isis/application/toolchain/bin/../lib/gcc/arm-none-eabi/4.7.4/../../../../arm-none-eabi/lib\libc_s.a(lib_a-mprec.o)
                0x20004118                __multadd
 .text.__s2b    0x200041d4       0xd8 c:/isis/application/toolchain/bin/../lib/gcc/arm-none-eabi/4.7.4/../../../../arm-none-eabi/lib\libc_s.a(lib_a-mprec.o)
                0x200041d4                __s2b
 .text.__hi0bits
                0x200042ac       0x58 c:/isis/application/toolchain/bin/../lib/gcc/arm-none-eabi/4.7.4/../../../../arm-none-eabi/lib\libc_s.a(lib_a-mprec.o)
                0x200042ac                __hi0bits
 .text.__lo0bits
                0x20004304       0x94 c:/isis/application/toolchain/bin/../lib/gcc/arm-none-eabi/4.7.4/../../../../arm-none-eabi/lib\libc_s.a(lib_a-mprec.o)
                0x20004304                __lo0bits
 .text.__i2b    0x20004398       0x24 c:/isis/application/toolchain/bin/../lib/gcc/arm-none-eabi/4.7.4/../../../../arm-none-eabi/lib\libc_s.a(lib_a-mprec.o)
                0x20004398                __i2b
 .text.__multiply
                0x200043bc      0x1ac c:/isis/application/toolchain/bin/../lib/gcc/arm-none-eabi/4.7.4/../../../../arm-none-eabi/lib\libc_s.a(lib_a-mprec.o)
                0x200043bc                __multiply
 .text.__pow5mult
                0x20004568      0x10c c:/isis/application/toolchain/bin/../lib/gcc/arm-none-eabi/4.7.4/../../../../arm-none-eabi/lib\libc_s.a(lib_a-mprec.o)
                0x20004568                __pow5mult
 .text.__lshift
                0x20004674       0xf0 c:/isis/application/toolchain/bin/../lib/gcc/arm-none-eabi/4.7.4/../../../../arm-none-eabi/lib\libc_s.a(lib_a-mprec.o)
                0x20004674                __lshift
 .text.__mcmp   0x20004764       0x60 c:/isis/application/toolchain/bin/../lib/gcc/arm-none-eabi/4.7.4/../../../../arm-none-eabi/lib\libc_s.a(lib_a-mprec.o)
                0x20004764                __mcmp
 .text.__mdiff  0x200047c4      0x128 c:/isis/application/toolchain/bin/../lib/gcc/arm-none-eabi/4.7.4/../../../../arm-none-eabi/lib\libc_s.a(lib_a-mprec.o)
                0x200047c4                __mdiff
 .text.__ulp    0x200048ec       0x5c c:/isis/application/toolchain/bin/../lib/gcc/arm-none-eabi/4.7.4/../../../../arm-none-eabi/lib\libc_s.a(lib_a-mprec.o)
                0x200048ec                __ulp
 .text.__b2d    0x20004948       0xc8 c:/isis/application/toolchain/bin/../lib/gcc/arm-none-eabi/4.7.4/../../../../arm-none-eabi/lib\libc_s.a(lib_a-mprec.o)
                0x20004948                __b2d
 .text.__d2b    0x20004a10       0xfc c:/isis/application/toolchain/bin/../lib/gcc/arm-none-eabi/4.7.4/../../../../arm-none-eabi/lib\libc_s.a(lib_a-mprec.o)
                0x20004a10                __d2b
 .text.__ratio  0x20004b0c       0x70 c:/isis/application/toolchain/bin/../lib/gcc/arm-none-eabi/4.7.4/../../../../arm-none-eabi/lib\libc_s.a(lib_a-mprec.o)
                0x20004b0c                __ratio
 .text.__copybits
                0x20004b7c       0x4c c:/isis/application/toolchain/bin/../lib/gcc/arm-none-eabi/4.7.4/../../../../arm-none-eabi/lib\libc_s.a(lib_a-mprec.o)
                0x20004b7c                __copybits
 .text.__any_on
                0x20004bc8       0x7c c:/isis/application/toolchain/bin/../lib/gcc/arm-none-eabi/4.7.4/../../../../arm-none-eabi/lib\libc_s.a(lib_a-mprec.o)
                0x20004bc8                __any_on
 .text.__fpclassifyd
                0x20004c44       0x6c c:/isis/application/toolchain/bin/../lib/gcc/arm-none-eabi/4.7.4/../../../../arm-none-eabi/lib\libc_s.a(lib_a-s_fpclassify.o)
                0x20004c44                __fpclassifyd
 .text._sbrk_r  0x20004cb0       0x3c c:/isis/application/toolchain/bin/../lib/gcc/arm-none-eabi/4.7.4/../../../../arm-none-eabi/lib\libc_s.a(lib_a-sbrkr.o)
                0x20004cb0                _sbrk_r
 .text.nanf     0x20004cec        0xc c:/isis/application/toolchain/bin/../lib/gcc/arm-none-eabi/4.7.4/../../../../arm-none-eabi/lib\libc_s.a(lib_a-sf_nan.o)
                0x20004cec                nanf
 .text.sprintf  0x20004cf8       0x6c c:/isis/application/toolchain/bin/../lib/gcc/arm-none-eabi/4.7.4/../../../../arm-none-eabi/lib\libc_s.a(lib_a-sprintf.o)
                0x20004cf8                siprintf
                0x20004cf8                sprintf
 .text.strcmp   0x20004d64       0x1c c:/isis/application/toolchain/bin/../lib/gcc/arm-none-eabi/4.7.4/../../../../arm-none-eabi/lib\libc_s.a(lib_a-strcmp.o)
                0x20004d64                strcmp
 .text.strlen   0x20004d80       0x1c c:/isis/application/toolchain/bin/../lib/gcc/arm-none-eabi/4.7.4/../../../../arm-none-eabi/lib\libc_s.a(lib_a-strlen.o)
                0x20004d80                strlen
 .text.match    0x20004d9c       0x54 c:/isis/application/toolchain/bin/../lib/gcc/arm-none-eabi/4.7.4/../../../../arm-none-eabi/lib\libc_s.a(lib_a-strtod.o)
 .text._strtod_r
                0x20004df0     0x1168 c:/isis/application/toolchain/bin/../lib/gcc/arm-none-eabi/4.7.4/../../../../arm-none-eabi/lib\libc_s.a(lib_a-strtod.o)
                0x20004df0                _strtod_r
 .text._strtol_r
                0x20005f58      0x1b8 c:/isis/application/toolchain/bin/../lib/gcc/arm-none-eabi/4.7.4/../../../../arm-none-eabi/lib\libc_s.a(lib_a-strtol.o)
                0x20005f58                _strtol_r
 .text.__ssputc_r
                0x20006110      0x10c c:/isis/application/toolchain/bin/../lib/gcc/arm-none-eabi/4.7.4/../../../../arm-none-eabi/lib\libc_s.a(lib_a-svfprintf.o)
                0x20006110                __ssputc_r
 .text._svfprintf_r
                0x2000621c      0x328 c:/isis/application/toolchain/bin/../lib/gcc/arm-none-eabi/4.7.4/../../../../arm-none-eabi/lib\libc_s.a(lib_a-svfprintf.o)
                0x2000621c                _svfiprintf_r
                0x2000621c                _svfprintf_r
 .text._calloc_r
                0x20006544       0x2c c:/isis/application/toolchain/bin/../lib/gcc/arm-none-eabi/4.7.4/../../../../arm-none-eabi/lib\libc_s.a(lib_a-callocr.o)
                0x20006544                _calloc_r
 .text._free_r  0x20006570      0x108 c:/isis/application/toolchain/bin/../lib/gcc/arm-none-eabi/4.7.4/../../../../arm-none-eabi/lib\libc_s.a(lib_a-freer.o)
                0x20006570                _free_r
 .text.rshift   0x20006678       0xb0 c:/isis/application/toolchain/bin/../lib/gcc/arm-none-eabi/4.7.4/../../../../arm-none-eabi/lib\libc_s.a(lib_a-gdtoa-gethex.o)
 .text.htinit.constprop.0
                0x20006728       0x34 c:/isis/application/toolchain/bin/../lib/gcc/arm-none-eabi/4.7.4/../../../../arm-none-eabi/lib\libc_s.a(lib_a-gdtoa-gethex.o)
 .text.__hexdig_init
                0x2000675c       0x38 c:/isis/application/toolchain/bin/../lib/gcc/arm-none-eabi/4.7.4/../../../../arm-none-eabi/lib\libc_s.a(lib_a-gdtoa-gethex.o)
                0x2000675c                __hexdig_init
 .text.__gethex
                0x20006794      0x6cc c:/isis/application/toolchain/bin/../lib/gcc/arm-none-eabi/4.7.4/../../../../arm-none-eabi/lib\libc_s.a(lib_a-gdtoa-gethex.o)
                0x20006794                __gethex
 .text.L_shift  0x20006e60       0x38 c:/isis/application/toolchain/bin/../lib/gcc/arm-none-eabi/4.7.4/../../../../arm-none-eabi/lib\libc_s.a(lib_a-gdtoa-hexnan.o)
 .text.__hexnan
                0x20006e98      0x1d8 c:/isis/application/toolchain/bin/../lib/gcc/arm-none-eabi/4.7.4/../../../../arm-none-eabi/lib\libc_s.a(lib_a-gdtoa-hexnan.o)
                0x20006e98                __hexnan
 .text.memchr   0x20007070       0x34 c:/isis/application/toolchain/bin/../lib/gcc/arm-none-eabi/4.7.4/../../../../arm-none-eabi/lib\libc_s.a(lib_a-memchr.o)
                0x20007070                memchr
 .text.memset   0x200070a4       0x1c c:/isis/application/toolchain/bin/../lib/gcc/arm-none-eabi/4.7.4/../../../../arm-none-eabi/lib\libc_s.a(lib_a-memset.o)
                0x200070a4                memset
 .text._realloc_r
                0x200070c0       0x80 c:/isis/application/toolchain/bin/../lib/gcc/arm-none-eabi/4.7.4/../../../../arm-none-eabi/lib\libc_s.a(lib_a-reallocr.o)
                0x200070c0                _realloc_r
 .text.strncmp  0x20007140       0x64 c:/isis/application/toolchain/bin/../lib/gcc/arm-none-eabi/4.7.4/../../../../arm-none-eabi/lib\libc_s.a(lib_a-strncmp.o)
                0x20007140                strncmp
 .text._malloc_usable_size_r
                0x200071a4       0x1c c:/isis/application/toolchain/bin/../lib/gcc/arm-none-eabi/4.7.4/../../../../arm-none-eabi/lib\libc_s.a(lib_a-msizer.o)
                0x200071a4                _malloc_usable_size_r
 .text.EPS_Init
                0x200071c0       0xd8 ./src/SubSystemModules/PowerManagment/EPS.o
                0x200071c0                EPS_Init
 .text.eps_set_channels_on
                0x20007298       0x68 ./src/SubSystemModules/PowerManagment/EPS.o
                0x20007298                eps_set_channels_on
 .text.EPS_Conditioning
                0x20007300      0x1a8 ./src/SubSystemModules/PowerManagment/EPS.o
                0x20007300                EPS_Conditioning
 .text.GetBatteryVoltage
                0x200074a8       0x54 ./src/SubSystemModules/PowerManagment/EPS.o
                0x200074a8                GetBatteryVoltage
 .text.GetThresholdVoltages
                0x200074fc       0x4c ./src/SubSystemModules/PowerManagment/EPS.o
                0x200074fc                GetThresholdVoltages
 .text.GetAlpha
                0x20007548       0x48 ./src/SubSystemModules/PowerManagment/EPS.o
                0x20007548                GetAlpha
 .text.is_time_linger_passed
                0x20007590       0x58 ./src/SubSystemModules/PowerManagment/EPSOperationModes.o
                0x20007590                is_time_linger_passed
 .text.is_next_state_time_linger_passed
                0x200075e8       0x9c ./src/SubSystemModules/PowerManagment/EPSOperationModes.o
                0x200075e8                is_next_state_time_linger_passed
 .text.EnterFullMode
                0x20007684       0xa8 ./src/SubSystemModules/PowerManagment/EPSOperationModes.o
                0x20007684                EnterFullMode
 .text.EnterCruiseMode
                0x2000772c       0xa4 ./src/SubSystemModules/PowerManagment/EPSOperationModes.o
                0x2000772c                EnterCruiseMode
 .text.EnterSafeMode
                0x200077d0       0xa4 ./src/SubSystemModules/PowerManagment/EPSOperationModes.o
                0x200077d0                EnterSafeMode
 .text.EnterCriticalMode
                0x20007874       0xa4 ./src/SubSystemModules/PowerManagment/EPSOperationModes.o
                0x20007874                EnterCriticalMode
 .text.GetEPSSystemState
                0x20007918       0x24 ./src/SubSystemModules/PowerManagment/EPSOperationModes.o
                0x20007918                GetEPSSystemState
 .text.EpsSetLowVoltageFlag
                0x2000793c       0x2c ./src/SubSystemModules/PowerManagment/EPSOperationModes.o
                0x2000793c                EpsSetLowVoltageFlag
 .text.payloadInit
                0x20007968       0xe4 ./src/SubSystemModules/Payload/payload_drivers.o
                0x20007968                payloadInit
 .text.payloadRead
                0x20007a4c       0xbc ./src/SubSystemModules/Payload/payload_drivers.o
                0x20007a4c                payloadRead
 .text.payloadSendCommand
                0x20007b08       0x70 ./src/SubSystemModules/Payload/payload_drivers.o
                0x20007b08                payloadSendCommand
 .text.payloadReadEnvironment
                0x20007b78      0x4d0 ./src/SubSystemModules/Payload/payload_drivers.o
                0x20007b78                payloadReadEnvironment
 .text.payloadReadEvents
                0x20008048      0x410 ./src/SubSystemModules/Payload/payload_drivers.o
                0x20008048                payloadReadEvents
 .text.payloadCommandRestartCount
                0x20008458       0x60 ./src/SubSystemModules/Payload/payload_drivers.o
                0x20008458                payloadCommandRestartCount
 .text.payloadTurnOff
                0x200084b8       0x68 ./src/SubSystemModules/Payload/payload_drivers.o
                0x200084b8                payloadTurnOff
 .text.payloadTurnOn
                0x20008520       0x84 ./src/SubSystemModules/Payload/payload_drivers.o
                0x20008520                payloadTurnOn
 .text._logg    0x200085a4      0x33c ./src/SubSystemModules/Maintenance/Log.o
                0x200085a4                _logg
 .text.logg     0x200088e0       0xc4 ./src/SubSystemModules/Maintenance/Log.o
                0x200088e0                logg
 .text.setLogLevel
                0x200089a4       0x30 ./src/SubSystemModules/Maintenance/Log.o
                0x200089a4                setLogLevel
 .text.getLogLevel
                0x200089d4       0x24 ./src/SubSystemModules/Maintenance/Log.o
                0x200089d4                getLogLevel
 .text.initLog  0x200089f8       0x34 ./src/SubSystemModules/Maintenance/Log.o
                0x200089f8                initLog
 .text.getLastErrorMsgSize
                0x20008a2c       0x24 ./src/SubSystemModules/Maintenance/Log.o
                0x20008a2c                getLastErrorMsgSize
 .text.copyLastErrorMsg
                0x20008a50       0x60 ./src/SubSystemModules/Maintenance/Log.o
                0x20008a50                copyLastErrorMsg
 .text.getLog_TLM
                0x20008ab0       0xb0 ./src/SubSystemModules/Maintenance/Log.o
                0x20008ab0                getLog_TLM
 .text.CheckExecutionTime
                0x20008b60       0x90 ./src/SubSystemModules/Maintenance/Maintenance.o
                0x20008b60                CheckExecutionTime
 .text.SaveSatTimeInFRAM
                0x20008bf0       0x44 ./src/SubSystemModules/Maintenance/Maintenance.o
                0x20008bf0                SaveSatTimeInFRAM
 .text.IsFS_Corrupted
                0x20008c34       0x48 ./src/SubSystemModules/Maintenance/Maintenance.o
                0x20008c34                IsFS_Corrupted
 .text.WakeupFromResetCMD
                0x20008c7c       0xfc ./src/SubSystemModules/Maintenance/Maintenance.o
                0x20008c7c                WakeupFromResetCMD
 .text.ResetGroundCommWDT
                0x20008d78       0x1c ./src/SubSystemModules/Maintenance/Maintenance.o
                0x20008d78                ResetGroundCommWDT
 .text.IsGroundCommunicationWDTKick
                0x20008d94       0xd0 ./src/SubSystemModules/Maintenance/Maintenance.o
                0x20008d94                IsGroundCommunicationWDTKick
 .text.GetGsWdtKickTime
                0x20008e64       0x38 ./src/SubSystemModules/Maintenance/Maintenance.o
                0x20008e64                GetGsWdtKickTime
 .text.Maintenance
                0x20008e9c       0x48 ./src/SubSystemModules/Maintenance/Maintenance.o
                0x20008e9c                Maintenance
 .text.InitDump
                0x20008ee4       0xa0 ./src/SubSystemModules/Housekepping/Dump.o
                0x20008ee4                InitDump
 .text.FinishDump
                0x20008f84       0xd8 ./src/SubSystemModules/Housekepping/Dump.o
                0x20008f84                FinishDump
 .text.SendDumpAbortRequest
                0x2000905c       0xa0 ./src/SubSystemModules/Housekepping/Dump.o
                0x2000905c                SendDumpAbortRequest
 .text.CheckDumpAbort
                0x200090fc       0x58 ./src/SubSystemModules/Housekepping/Dump.o
                0x200090fc                CheckDumpAbort
 .text.getTelemetryMetaData
                0x20009154       0x7c ./src/SubSystemModules/Housekepping/Dump.o
                0x20009154                getTelemetryMetaData
 .text.send     0x200091d0       0xc0 ./src/SubSystemModules/Housekepping/Dump.o
                0x200091d0                send
 .text.DumpStart
                0x20009290      0x338 ./src/SubSystemModules/Housekepping/Dump.o
                0x20009290                DumpStart
 .text.DumpTask
                0x200095c8       0x34 ./src/SubSystemModules/Housekepping/Dump.o
                0x200095c8                DumpTask
 .text.DumpTelemetry
                0x200095fc      0x1cc ./src/SubSystemModules/Housekepping/Dump.o
                0x200095fc                DumpTelemetry
 .text.CalcPacketSize
                0x200097c8       0xbc ./src/SubSystemModules/Housekepping/Dump.o
                0x200097c8                CalcPacketSize
 .text.SendAll  0x20009884      0x1d8 ./src/SubSystemModules/Housekepping/Dump.o
                0x20009884                SendAll
 .text.CMD_GetDumpByIndex
                0x20009a5c      0x1dc ./src/SubSystemModules/Housekepping/Dump.o
                0x20009a5c                CMD_GetDumpByIndex
 .text.FirstScan
                0x20009c38      0x46c ./src/SubSystemModules/Housekepping/Dump.o
                0x20009c38                FirstScan
 .text.AddTime  0x2000a0a4       0x80 ./src/SubSystemModules/Housekepping/TelemetryCollector.o
                0x2000a0a4                AddTime
 .text.InitTelemetryCollector
                0x2000a124       0x28 ./src/SubSystemModules/Housekepping/TelemetryCollector.o
                0x2000a124                InitTelemetryCollector
 .text.GetTelemetryFilenameByType
                0x2000a14c      0x264 ./src/SubSystemModules/Housekepping/TelemetryCollector.o
                0x2000a14c                GetTelemetryFilenameByType
 .text.TelemetryCollectorLogic
                0x2000a3b0      0x1ac ./src/SubSystemModules/Housekepping/TelemetryCollector.o
                0x2000a3b0                TelemetryCollectorLogic
 .text.TelemetryCreateFiles
                0x2000a55c      0x2e4 ./src/SubSystemModules/Housekepping/TelemetryCollector.o
                0x2000a55c                TelemetryCreateFiles
 .text.to_hk_eps_eng
                0x2000a840      0x418 ./src/SubSystemModules/Housekepping/TelemetryCollector.o
                0x2000a840                to_hk_eps_eng
 .text.TelemetrySaveEPS
                0x2000ac58      0x148 ./src/SubSystemModules/Housekepping/TelemetryCollector.o
                0x2000ac58                TelemetrySaveEPS
 .text.CMD_getEPS_ENG_TLM
                0x2000ada0       0x88 ./src/SubSystemModules/Housekepping/TelemetryCollector.o
                0x2000ada0                CMD_getEPS_ENG_TLM
 .text.CMD_getEPS_RAW_TLM
                0x2000ae28       0x88 ./src/SubSystemModules/Housekepping/TelemetryCollector.o
                0x2000ae28                CMD_getEPS_RAW_TLM
 .text.CMD_getEPS_AVG_TLM
                0x2000aeb0       0x88 ./src/SubSystemModules/Housekepping/TelemetryCollector.o
                0x2000aeb0                CMD_getEPS_AVG_TLM
 .text.TelemetrySaveTRXVU
                0x2000af38       0xd0 ./src/SubSystemModules/Housekepping/TelemetryCollector.o
                0x2000af38                TelemetrySaveTRXVU
 .text.CMD_getTX_TLM
                0x2000b008       0xa8 ./src/SubSystemModules/Housekepping/TelemetryCollector.o
                0x2000b008                CMD_getTX_TLM
 .text.CMD_getRX_TLM
                0x2000b0b0       0x98 ./src/SubSystemModules/Housekepping/TelemetryCollector.o
                0x2000b0b0                CMD_getRX_TLM
 .text.TelemetrySaveANT
                0x2000b148      0x158 ./src/SubSystemModules/Housekepping/TelemetryCollector.o
                0x2000b148                TelemetrySaveANT
 .text.CMD_getAnts_A_TLM
                0x2000b2a0       0x70 ./src/SubSystemModules/Housekepping/TelemetryCollector.o
                0x2000b2a0                CMD_getAnts_A_TLM
 .text.CMD_getAnts_B_TLM
                0x2000b310       0x70 ./src/SubSystemModules/Housekepping/TelemetryCollector.o
                0x2000b310                CMD_getAnts_B_TLM
 .text.SolarPanelv2_Temperature
                0x2000b380      0x138 ./src/SubSystemModules/Housekepping/TelemetryCollector.o
                0x2000b380                SolarPanelv2_Temperature
 .text.CMD_getSolar_TLM
                0x2000b4b8       0x64 ./src/SubSystemModules/Housekepping/TelemetryCollector.o
                0x2000b4b8                CMD_getSolar_TLM
 .text.GetCurrentWODTelemetry
                0x2000b51c      0x18c ./src/SubSystemModules/Housekepping/TelemetryCollector.o
                0x2000b51c                GetCurrentWODTelemetry
 .text.CMD_getWOD_TLM
                0x2000b6a8       0x50 ./src/SubSystemModules/Housekepping/TelemetryCollector.o
                0x2000b6a8                CMD_getWOD_TLM
 .text.CMD_getLOG_TLM
                0x2000b6f8       0x44 ./src/SubSystemModules/Housekepping/TelemetryCollector.o
                0x2000b6f8                CMD_getLOG_TLM
 .text.TelemetrySavePIC32
                0x2000b73c       0x88 ./src/SubSystemModules/Housekepping/TelemetryCollector.o
                0x2000b73c                TelemetrySavePIC32
 .text.TelemetrySaveRADFET
                0x2000b7c4       0x88 ./src/SubSystemModules/Housekepping/TelemetryCollector.o
                0x2000b7c4                TelemetrySaveRADFET
 .text.CMD_getPic32_TLM
                0x2000b84c       0xb4 ./src/SubSystemModules/Housekepping/TelemetryCollector.o
                0x2000b84c                CMD_getPic32_TLM
 .text.CMD_getRadfet_TLM
                0x2000b900       0xb8 ./src/SubSystemModules/Housekepping/TelemetryCollector.o
                0x2000b900                CMD_getRadfet_TLM
 .text.CMD_EPS_ResetWDT
                0x2000b9b8       0x2c ./src/SubSystemModules/Communication/SubsystemCommands/EPS_Commands.o
                0x2000b9b8                CMD_EPS_ResetWDT
 .text.CMD_EPS_SetChannelStateOn
                0x2000b9e4       0xa4 ./src/SubSystemModules/Communication/SubsystemCommands/EPS_Commands.o
                0x2000b9e4                CMD_EPS_SetChannelStateOn
 .text.CMD_EPS_SetChannelStateOff
                0x2000ba88       0x9c ./src/SubSystemModules/Communication/SubsystemCommands/EPS_Commands.o
                0x2000ba88                CMD_EPS_SetChannelStateOff
 .text.CMD_DeleteFileByTime
                0x2000bb24      0x110 ./src/SubSystemModules/Communication/SubsystemCommands/FS_Commands.o
                0x2000bb24                CMD_DeleteFileByTime
 .text.CMD_DeleteFilesOfType
                0x2000bc34       0xa8 ./src/SubSystemModules/Communication/SubsystemCommands/FS_Commands.o
                0x2000bc34                CMD_DeleteFilesOfType
 .text.CMD_DeleteFS
                0x2000bcdc       0x24 ./src/SubSystemModules/Communication/SubsystemCommands/FS_Commands.o
                0x2000bcdc                CMD_DeleteFS
 .text.CMD_GetLastFS_Error
                0x2000bd00       0x40 ./src/SubSystemModules/Communication/SubsystemCommands/FS_Commands.o
                0x2000bd00                CMD_GetLastFS_Error
 .text.CMD_FreeSpace
                0x2000bd40       0x58 ./src/SubSystemModules/Communication/SubsystemCommands/FS_Commands.o
                0x2000bd40                CMD_FreeSpace
 .text.CMD_isFS_Corrupt
                0x2000bd98       0x40 ./src/SubSystemModules/Communication/SubsystemCommands/FS_Commands.o
                0x2000bd98                CMD_isFS_Corrupt
 .text.CMD_GenericI2C
                0x2000bdd8      0x168 ./src/SubSystemModules/Communication/SubsystemCommands/Maintanence_Commands.o
                0x2000bdd8                CMD_GenericI2C
 .text.CMD_FRAM_ReadAndTransmitt
                0x2000bf40      0x128 ./src/SubSystemModules/Communication/SubsystemCommands/Maintanence_Commands.o
                0x2000bf40                CMD_FRAM_ReadAndTransmitt
 .text.CMD_FRAM_WriteAndTransmitt
                0x2000c068      0x13c ./src/SubSystemModules/Communication/SubsystemCommands/Maintanence_Commands.o
                0x2000c068                CMD_FRAM_WriteAndTransmitt
 .text.CMD_FRAM_Start
                0x2000c1a4       0x58 ./src/SubSystemModules/Communication/SubsystemCommands/Maintanence_Commands.o
                0x2000c1a4                CMD_FRAM_Start
 .text.CMD_FRAM_Stop
                0x2000c1fc       0x3c ./src/SubSystemModules/Communication/SubsystemCommands/Maintanence_Commands.o
                0x2000c1fc                CMD_FRAM_Stop
 .text.CMD_FRAM_Restart
                0x2000c238       0x40 ./src/SubSystemModules/Communication/SubsystemCommands/Maintanence_Commands.o
                0x2000c238                CMD_FRAM_Restart
 .text.CMD_UpdateSatTime
                0x2000c278       0xb4 ./src/SubSystemModules/Communication/SubsystemCommands/Maintanence_Commands.o
                0x2000c278                CMD_UpdateSatTime
 .text.CMD_GetSatTime
                0x2000c32c       0x78 ./src/SubSystemModules/Communication/SubsystemCommands/Maintanence_Commands.o
                0x2000c32c                CMD_GetSatTime
 .text.CMD_GetSatUptime
                0x2000c3a4       0x60 ./src/SubSystemModules/Communication/SubsystemCommands/Maintanence_Commands.o
                0x2000c3a4                CMD_GetSatUptime
 .text.CMD_AntennaDeploy
                0x2000c404       0x40 ./src/SubSystemModules/Communication/SubsystemCommands/Maintanence_Commands.o
                0x2000c404                CMD_AntennaDeploy
 .text.CMD_setLogLevel
                0x2000c444       0x94 ./src/SubSystemModules/Communication/SubsystemCommands/Maintanence_Commands.o
                0x2000c444                CMD_setLogLevel
 .text.CMD_getLogLevel
                0x2000c4d8       0x9c ./src/SubSystemModules/Communication/SubsystemCommands/Maintanence_Commands.o
                0x2000c4d8                CMD_getLogLevel
 .text.CMD_SetTLM_CollectionCycle
                0x2000c574      0x1a0 ./src/SubSystemModules/Communication/SubsystemCommands/Maintanence_Commands.o
                0x2000c574                CMD_SetTLM_CollectionCycle
 .text.CMD_GetTLM_CollectionCycle
                0x2000c714      0x170 ./src/SubSystemModules/Communication/SubsystemCommands/Maintanence_Commands.o
                0x2000c714                CMD_GetTLM_CollectionCycle
 .text.CMD_ResetComponent
                0x2000c884      0x264 ./src/SubSystemModules/Communication/SubsystemCommands/Maintanence_Commands.o
                0x2000c884                CMD_ResetComponent
 .text.CMD_StartDump
                0x2000cae8       0x34 ./src/SubSystemModules/Communication/SubsystemCommands/TRXVU_Commands.o
                0x2000cae8                CMD_StartDump
 .text.CMD_SendDumpAbortRequest
                0x2000cb1c       0x24 ./src/SubSystemModules/Communication/SubsystemCommands/TRXVU_Commands.o
                0x2000cb1c                CMD_SendDumpAbortRequest
 .text.CMD_MuteTRXVU
                0x2000cb40       0x5c ./src/SubSystemModules/Communication/SubsystemCommands/TRXVU_Commands.o
                0x2000cb40                CMD_MuteTRXVU
 .text.CMD_UnMuteTRXVU
                0x2000cb9c       0x24 ./src/SubSystemModules/Communication/SubsystemCommands/TRXVU_Commands.o
                0x2000cb9c                CMD_UnMuteTRXVU
 .text.CMD_GetBeaconInterval
                0x2000cbc0       0x60 ./src/SubSystemModules/Communication/SubsystemCommands/TRXVU_Commands.o
                0x2000cbc0                CMD_GetBeaconInterval
 .text.CMD_GetTxUptime
                0x2000cc20       0x5c ./src/SubSystemModules/Communication/SubsystemCommands/TRXVU_Commands.o
                0x2000cc20                CMD_GetTxUptime
 .text.CMD_GetRxUptime
                0x2000cc7c       0x5c ./src/SubSystemModules/Communication/SubsystemCommands/TRXVU_Commands.o
                0x2000cc7c                CMD_GetRxUptime
 .text.CMD_GetNumOfOnlineCommands
                0x2000ccd8       0x54 ./src/SubSystemModules/Communication/SubsystemCommands/TRXVU_Commands.o
                0x2000ccd8                CMD_GetNumOfOnlineCommands
 .text.CMD_AntSetArmStatus
                0x2000cd2c       0x9c ./src/SubSystemModules/Communication/SubsystemCommands/TRXVU_Commands.o
                0x2000cd2c                CMD_AntSetArmStatus
 .text.CMD_AntGetArmStatus
                0x2000cdc8       0x64 ./src/SubSystemModules/Communication/SubsystemCommands/TRXVU_Commands.o
                0x2000cdc8                CMD_AntGetArmStatus
 .text.CMD_AntGetUptime
                0x2000ce2c       0x6c ./src/SubSystemModules/Communication/SubsystemCommands/TRXVU_Commands.o
                0x2000ce2c                CMD_AntGetUptime
 .text.CMD_AntCancelDeployment
                0x2000ce98       0x40 ./src/SubSystemModules/Communication/SubsystemCommands/TRXVU_Commands.o
                0x2000ce98                CMD_AntCancelDeployment
 .text.CMD_AntStopAutoDeployment
                0x2000ced8       0x48 ./src/SubSystemModules/Communication/SubsystemCommands/TRXVU_Commands.o
                0x2000ced8                CMD_AntStopAutoDeployment
 .text.SendAckPacket
                0x2000cf20       0xe0 ./src/SubSystemModules/Communication/AckHandler.o
                0x2000cf20                SendAckPacket
 .text.SendErrorMSG
                0x2000d000       0xc4 ./src/SubSystemModules/Communication/AckHandler.o
                0x2000d000                SendErrorMSG
 .text.ActUponCommand
                0x2000d0c4      0x1ac ./src/SubSystemModules/Communication/ActUponCommand.o
                0x2000d0c4                ActUponCommand
 .text.InitBeaconParams
                0x2000d270       0x74 ./src/SubSystemModules/Communication/Beacon.o
                0x2000d270                InitBeaconParams
 .text.BeaconLogic
                0x2000d2e4      0x13c ./src/SubSystemModules/Communication/Beacon.o
                0x2000d2e4                BeaconLogic
 .text.UpdateBeaconInterval
                0x2000d420       0xe8 ./src/SubSystemModules/Communication/Beacon.o
                0x2000d420                UpdateBeaconInterval
 .text.trxvu_command_router
                0x2000d508      0x260 ./src/SubSystemModules/Communication/CommandDictionary.o
                0x2000d508                trxvu_command_router
 .text.eps_command_router
                0x2000d768       0xfc ./src/SubSystemModules/Communication/CommandDictionary.o
                0x2000d768                eps_command_router
 .text.telemetry_command_router
                0x2000d864      0x1b0 ./src/SubSystemModules/Communication/CommandDictionary.o
                0x2000d864                telemetry_command_router
 .text.managment_command_router
                0x2000da14      0x2a8 ./src/SubSystemModules/Communication/CommandDictionary.o
                0x2000da14                managment_command_router
 .text.filesystem_command_router
                0x2000dcbc      0x108 ./src/SubSystemModules/Communication/CommandDictionary.o
                0x2000dcbc                filesystem_command_router
 .text.AssembleCommand
                0x2000ddc4      0x244 ./src/SubSystemModules/Communication/SatCommandHandler.o
                0x2000ddc4                AssembleCommand
 .text.ParseDataToCommand
                0x2000e008      0x2bc ./src/SubSystemModules/Communication/SatCommandHandler.o
                0x2000e008                ParseDataToCommand
 .text.GetOnlineCommand
                0x2000e2c4      0x134 ./src/SubSystemModules/Communication/SatCommandHandler.o
                0x2000e2c4                GetOnlineCommand
 .text.InitTxModule
                0x2000e3f8       0xec ./src/SubSystemModules/Communication/SatDataTx.o
                0x2000e3f8                InitTxModule
 .text.muteTRXVU
                0x2000e4e4       0xbc ./src/SubSystemModules/Communication/SatDataTx.o
                0x2000e4e4                muteTRXVU
 .text.UnMuteTRXVU
                0x2000e5a0       0x60 ./src/SubSystemModules/Communication/SatDataTx.o
                0x2000e5a0                UnMuteTRXVU
 .text.GetMuteFlag
                0x2000e600       0x24 ./src/SubSystemModules/Communication/SatDataTx.o
                0x2000e600                GetMuteFlag
 .text.CheckForMuteEnd
                0x2000e624       0x70 ./src/SubSystemModules/Communication/SatDataTx.o
                0x2000e624                CheckForMuteEnd
 .text.GetNumberOfFramesInBuffer
                0x2000e694       0x50 ./src/SubSystemModules/Communication/SatDataTx.o
                0x2000e694                GetNumberOfFramesInBuffer
 .text.CheckTransmitionAllowed
                0x2000e6e4       0x98 ./src/SubSystemModules/Communication/SatDataTx.o
                0x2000e6e4                CheckTransmitionAllowed
 .text.TransmitDataAsSPL_Packet
                0x2000e77c      0x18c ./src/SubSystemModules/Communication/SatDataTx.o
                0x2000e77c                TransmitDataAsSPL_Packet
 .text.TransmitSplPacket
                0x2000e908       0xf0 ./src/SubSystemModules/Communication/SatDataTx.o
                0x2000e908                TransmitSplPacket
 .text.vu_getFrequenciesTest_revE
                0x2000e9f8      0x120 ./src/SubSystemModules/Communication/TRXVU.o
                0x2000e9f8                vu_getFrequenciesTest_revE
 .text.setLastAntsAutoDeploymentTime
                0x2000eb18       0x3c ./src/SubSystemModules/Communication/TRXVU.o
                0x2000eb18                setLastAntsAutoDeploymentTime
 .text.HandleOpenAnts
                0x2000eb54       0x54 ./src/SubSystemModules/Communication/TRXVU.o
                0x2000eb54                HandleOpenAnts
 .text.SetIdleOff
                0x2000eba8       0x94 ./src/SubSystemModules/Communication/TRXVU.o
                0x2000eba8                SetIdleOff
 .text.HandleIdleAndMuteTime
                0x2000ec3c       0x9c ./src/SubSystemModules/Communication/TRXVU.o
                0x2000ec3c                HandleIdleAndMuteTime
 .text.HandleTransponderTime
                0x2000ecd8       0x40 ./src/SubSystemModules/Communication/TRXVU.o
                0x2000ecd8                HandleTransponderTime
 .text.InitAnts
                0x2000ed18       0x6c ./src/SubSystemModules/Communication/TRXVU.o
                0x2000ed18                InitAnts
 .text.get_ground_tx_bitrate
                0x2000ed84       0xa0 ./src/SubSystemModules/Communication/TRXVU.o
                0x2000ed84                get_ground_tx_bitrate
 .text.tx_bitrate_to_i2c
                0x2000ee24       0x68 ./src/SubSystemModules/Communication/TRXVU.o
                0x2000ee24                tx_bitrate_to_i2c
 .text.SetBitRate
                0x2000ee8c      0x14c ./src/SubSystemModules/Communication/TRXVU.o
                0x2000ee8c                SetBitRate
 .text.SetRxFreq
                0x2000efd8       0xfc ./src/SubSystemModules/Communication/TRXVU.o
                0x2000efd8                SetRxFreq
 .text.SetTxFreq
                0x2000f0d4       0xe8 ./src/SubSystemModules/Communication/TRXVU.o
                0x2000f0d4                SetTxFreq
 .text.SetFreqAndBitrate
                0x2000f1bc       0x18 ./src/SubSystemModules/Communication/TRXVU.o
                0x2000f1bc                SetFreqAndBitrate
 .text.InitTrxvu
                0x2000f1d4       0xbc ./src/SubSystemModules/Communication/TRXVU.o
                0x2000f1d4                InitTrxvu
 .text.TRX_Logic
                0x2000f290      0x16c ./src/SubSystemModules/Communication/TRXVU.o
                0x2000f290                TRX_Logic
 .text.CMD_SetIdleOn
                0x2000f3fc       0xfc ./src/SubSystemModules/Communication/TRXVU.o
                0x2000f3fc                CMD_SetIdleOn
 .text.CMD_SetIdleOff
                0x2000f4f8       0x28 ./src/SubSystemModules/Communication/TRXVU.o
                0x2000f4f8                CMD_SetIdleOff
 .text.areAntennasOpen
                0x2000f520       0x7c ./src/SubSystemModules/Communication/TRXVU.o
                0x2000f520                areAntennasOpen
 .text.initTransponder
                0x2000f59c      0x100 ./src/SubSystemModules/Communication/Transponder.o
                0x2000f59c                initTransponder
 .text.set_transonder_mode
                0x2000f69c       0xa8 ./src/SubSystemModules/Communication/Transponder.o
                0x2000f69c                set_transonder_mode
 .text.set_transponder_RSSI
                0x2000f744       0x58 ./src/SubSystemModules/Communication/Transponder.o
                0x2000f744                set_transponder_RSSI
 .text.CMD_turnOnTransponder
                0x2000f79c      0x258 ./src/SubSystemModules/Communication/Transponder.o
                0x2000f79c                CMD_turnOnTransponder
 .text.CMD_set_transponder_RSSI
                0x2000f9f4       0xc4 ./src/SubSystemModules/Communication/Transponder.o
                0x2000f9f4                CMD_set_transponder_RSSI
 .text.CMD_turnOffTransponder
                0x2000fab8       0x3c ./src/SubSystemModules/Communication/Transponder.o
                0x2000fab8                CMD_turnOffTransponder
 .text.getTransponderMode
                0x2000faf4       0x24 ./src/SubSystemModules/Communication/Transponder.o
                0x2000faf4                getTransponderMode
 .text.checkEndTransponderMode
                0x2000fb18       0x80 ./src/SubSystemModules/Communication/Transponder.o
                0x2000fb18                checkEndTransponderMode
 .text.getDuration
                0x2000fb98       0x80 ./src/SubSystemModules/Communication/Transponder.o
                0x2000fb98                getDuration
 .text.SolarPanelv2Init
                0x2000fc18       0xc4 ./src/InitSystem.o
                0x2000fc18                SolarPanelv2Init
 .text.isFirstActivation
                0x2000fcdc       0x74 ./src/InitSystem.o
                0x2000fcdc                isFirstActivation
 .text.firstActivationProcedure
                0x2000fd50      0x15c ./src/InitSystem.o
                0x2000fd50                firstActivationProcedure
 .text.StartFRAM
                0x2000feac       0x18 ./src/InitSystem.o
                0x2000feac                StartFRAM
 .text.StartI2C
                0x2000fec4       0x24 ./src/InitSystem.o
                0x2000fec4                StartI2C
 .text.StartSPI
                0x2000fee8       0x20 ./src/InitSystem.o
                0x2000fee8                StartSPI
 .text.StartTIME
                0x2000ff08       0xd4 ./src/InitSystem.o
                0x2000ff08                StartTIME
 .text.autoDeploy
                0x2000ffdc      0x15c ./src/InitSystem.o
                0x2000ffdc                autoDeploy
 .text.DeploySystem
                0x20010138       0x58 ./src/InitSystem.o
                0x20010138                DeploySystem
 .text.InitSubsystems
                0x20010190      0x2e8 ./src/InitSystem.o
                0x20010190                InitSubsystems
 .text.getSdIndex
                0x20010478       0x44 ./src/TLM_management.o
 .text.setSdIndex
                0x200104bc       0x4c ./src/TLM_management.o
 .text.sd_format
                0x20010508       0x28 ./src/TLM_management.o
                0x20010508                sd_format
 .text.getNumOfFilesInFS
                0x20010530       0x44 ./src/TLM_management.o
 .text.setNumOfFilesInFS
                0x20010574       0x48 ./src/TLM_management.o
 .text.f_managed_enterFS
                0x200105bc       0x18 ./src/TLM_management.o
                0x200105bc                f_managed_enterFS
 .text.f_managed_open
                0x200105d4       0x60 ./src/TLM_management.o
                0x200105d4                f_managed_open
 .text.f_managed_close
                0x20010634       0x3c ./src/TLM_management.o
                0x20010634                f_managed_close
 .text.createSemahores_FS
                0x20010670       0x78 ./src/TLM_management.o
                0x20010670                createSemahores_FS
 .text.formatAndCreateFiles
                0x200106e8       0x68 ./src/TLM_management.o
                0x200106e8                formatAndCreateFiles
 .text.InitializeFS
                0x20010750      0x150 ./src/TLM_management.o
                0x20010750                InitializeFS
 .text.c_fileCreate
                0x200108a0      0x12c ./src/TLM_management.o
                0x200108a0                c_fileCreate
 .text.writewithEpochtime
                0x200109cc       0x90 ./src/TLM_management.o
 .text.write    0x20010a5c       0x3c ./src/TLM_management.o
 .text.get_C_FILE_struct
                0x20010a98       0xe4 ./src/TLM_management.o
                0x20010a98                get_C_FILE_struct
 .text.getFileIndex
                0x20010b7c       0x84 ./src/TLM_management.o
                0x20010b7c                getFileIndex
 .text.get_file_name_by_index
                0x20010c00       0x44 ./src/TLM_management.o
                0x20010c00                get_file_name_by_index
 .text.c_fileWrite
                0x20010c44       0x38 ./src/TLM_management.o
                0x20010c44                c_fileWrite
 .text._c_fileWrite
                0x20010c7c      0x194 ./src/TLM_management.o
                0x20010c7c                _c_fileWrite
 .text.deleteElementsFromFile
                0x20010e10      0x1a0 ./src/TLM_management.o
 .text.c_fileGetSizeOfElement
                0x20010fb0       0x5c ./src/TLM_management.o
                0x20010fb0                c_fileGetSizeOfElement
 .text.c_fileDeleteElements
                0x2001100c      0x158 ./src/TLM_management.o
                0x2001100c                c_fileDeleteElements
 .text.DeInitializeFS
                0x20011164       0x78 ./src/TLM_management.o
                0x20011164                DeInitializeFS
 .text.taskMain
                0x200111dc       0x6c ./src/main.o
                0x200111dc                taskMain
 .text.main     0x20011248       0x98 ./src/main.o
                0x20011248                main
 .text.clearPDCtransfers
                0x200112e0       0xe8 C:/Users/ground/Documents/GitHub/tevel2/GlobusSatProject/..//hal/hal/lib\libHALD.a(SPI.o)
 .text.SPI_start
                0x200113c8      0x4b0 C:/Users/ground/Documents/GitHub/tevel2/GlobusSatProject/..//hal/hal/lib\libHALD.a(SPI.o)
                0x200113c8                SPI_start
 .text.SPI_stop
                0x20011878      0x244 C:/Users/ground/Documents/GitHub/tevel2/GlobusSatProject/..//hal/hal/lib\libHALD.a(SPI.o)
                0x20011878                SPI_stop
 .text.SPI_queueTransfer
                0x20011abc      0x1cc C:/Users/ground/Documents/GitHub/tevel2/GlobusSatProject/..//hal/hal/lib\libHALD.a(SPI.o)
                0x20011abc                SPI_queueTransfer
 .text.SPI_internalCallback
                0x20011c88       0x64 C:/Users/ground/Documents/GitHub/tevel2/GlobusSatProject/..//hal/hal/lib\libHALD.a(SPI.o)
 .text.SPI_writeRead
                0x20011cec      0x1c0 C:/Users/ground/Documents/GitHub/tevel2/GlobusSatProject/..//hal/hal/lib\libHALD.a(SPI.o)
                0x20011cec                SPI_writeRead
 .text.waitForTransfer
                0x20011eac       0x78 C:/Users/ground/Documents/GitHub/tevel2/GlobusSatProject/..//hal/hal/lib\libHALD.a(SPI.o)
 .text.SPI_getDriverState
                0x20011f24       0x58 C:/Users/ground/Documents/GitHub/tevel2/GlobusSatProject/..//hal/hal/lib\libHALD.a(SPI.o)
                0x20011f24                SPI_getDriverState
 .text.validateTransferParameters
                0x20011f7c      0x10c C:/Users/ground/Documents/GitHub/tevel2/GlobusSatProject/..//hal/hal/lib\libHALD.a(I2C.o)
 .text.I2C_queueTransfer
                0x20012088       0xfc C:/Users/ground/Documents/GitHub/tevel2/GlobusSatProject/..//hal/hal/lib\libHALD.a(I2C.o)
                0x20012088                I2C_queueTransfer
 .text.I2C_internalCallback
                0x20012184       0x64 C:/Users/ground/Documents/GitHub/tevel2/GlobusSatProject/..//hal/hal/lib\libHALD.a(I2C.o)
 .text.I2C_doBlockingTransfer
                0x200121e8      0x180 C:/Users/ground/Documents/GitHub/tevel2/GlobusSatProject/..//hal/hal/lib\libHALD.a(I2C.o)
 .text.I2C_write
                0x20012368      0x110 C:/Users/ground/Documents/GitHub/tevel2/GlobusSatProject/..//hal/hal/lib\libHALD.a(I2C.o)
                0x20012368                I2C_write
 .text.I2C_read
                0x20012478      0x110 C:/Users/ground/Documents/GitHub/tevel2/GlobusSatProject/..//hal/hal/lib\libHALD.a(I2C.o)
                0x20012478                I2C_read
 .text.I2C_writeRead
                0x20012588      0x17c C:/Users/ground/Documents/GitHub/tevel2/GlobusSatProject/..//hal/hal/lib\libHALD.a(I2C.o)
                0x20012588                I2C_writeRead
 .text.I2C_start
                0x20012704      0x2e8 C:/Users/ground/Documents/GitHub/tevel2/GlobusSatProject/..//hal/hal/lib\libHALD.a(I2C.o)
                0x20012704                I2C_start
 .text.I2C_stop
                0x200129ec      0x184 C:/Users/ground/Documents/GitHub/tevel2/GlobusSatProject/..//hal/hal/lib\libHALD.a(I2C.o)
                0x200129ec                I2C_stop
 .text.I2C_setTransferTimeout
                0x20012b70       0x48 C:/Users/ground/Documents/GitHub/tevel2/GlobusSatProject/..//hal/hal/lib\libHALD.a(I2C.o)
                0x20012b70                I2C_setTransferTimeout
 .text.FRAM_start
                0x20012bb8      0x120 C:/Users/ground/Documents/GitHub/tevel2/GlobusSatProject/..//hal/hal/lib\libHALD.a(FRAM.o)
                0x20012bb8                FRAM_start
 .text.FRAM_stop
                0x20012cd8       0x6c C:/Users/ground/Documents/GitHub/tevel2/GlobusSatProject/..//hal/hal/lib\libHALD.a(FRAM.o)
                0x20012cd8                FRAM_stop
 .text.FRAM_dummyCallback
                0x20012d44       0x24 C:/Users/ground/Documents/GitHub/tevel2/GlobusSatProject/..//hal/hal/lib\libHALD.a(FRAM.o)
                0x20012d44                FRAM_dummyCallback
 .text.FRAM_unlockingCallback
                0x20012d68       0x64 C:/Users/ground/Documents/GitHub/tevel2/GlobusSatProject/..//hal/hal/lib\libHALD.a(FRAM.o)
                0x20012d68                FRAM_unlockingCallback
 .text.doBlockingTransfer
                0x20012dcc       0x78 C:/Users/ground/Documents/GitHub/tevel2/GlobusSatProject/..//hal/hal/lib\libHALD.a(FRAM.o)
 .text.FRAM_writePacket
                0x20012e44      0x134 C:/Users/ground/Documents/GitHub/tevel2/GlobusSatProject/..//hal/hal/lib\libHALD.a(FRAM.o)
 .text.FRAM_write
                0x20012f78      0x1e0 C:/Users/ground/Documents/GitHub/tevel2/GlobusSatProject/..//hal/hal/lib\libHALD.a(FRAM.o)
                0x20012f78                FRAM_write
 .text.FRAM_readPacket
                0x20013158       0xf0 C:/Users/ground/Documents/GitHub/tevel2/GlobusSatProject/..//hal/hal/lib\libHALD.a(FRAM.o)
 .text.FRAM_read
                0x20013248      0x1ec C:/Users/ground/Documents/GitHub/tevel2/GlobusSatProject/..//hal/hal/lib\libHALD.a(FRAM.o)
                0x20013248                FRAM_read
 .text.Time_start
                0x20013434      0x170 C:/Users/ground/Documents/GitHub/tevel2/GlobusSatProject/..//hal/hal/lib\libHALD.a(Time.o)
                0x20013434                Time_start
 .text.taskTimeSync
                0x200135a4       0x64 C:/Users/ground/Documents/GitHub/tevel2/GlobusSatProject/..//hal/hal/lib\libHALD.a(Time.o)
 .text.Time_convertEpochToTime
                0x20013608      0x100 C:/Users/ground/Documents/GitHub/tevel2/GlobusSatProject/..//hal/hal/lib\libHALD.a(Time.o)
                0x20013608                Time_convertEpochToTime
 .text.Time_calculateSecondsOfYear
                0x20013708       0xd8 C:/Users/ground/Documents/GitHub/tevel2/GlobusSatProject/..//hal/hal/lib\libHALD.a(Time.o)
 .text.Time_set
                0x200137e0       0xd8 C:/Users/ground/Documents/GitHub/tevel2/GlobusSatProject/..//hal/hal/lib\libHALD.a(Time.o)
                0x200137e0                Time_set
 .text.Time_isLeapYear
                0x200138b8       0x98 C:/Users/ground/Documents/GitHub/tevel2/GlobusSatProject/..//hal/hal/lib\libHALD.a(Time.o)
                0x200138b8                Time_isLeapYear
 .text.Time_get
                0x20013950      0x478 C:/Users/ground/Documents/GitHub/tevel2/GlobusSatProject/..//hal/hal/lib\libHALD.a(Time.o)
                0x20013950                Time_get
 .text.Time_getUnixEpoch
                0x20013dc8      0x108 C:/Users/ground/Documents/GitHub/tevel2/GlobusSatProject/..//hal/hal/lib\libHALD.a(Time.o)
                0x20013dc8                Time_getUnixEpoch
 .text.Time_secondsOfYearToTime
                0x20013ed0      0x33c C:/Users/ground/Documents/GitHub/tevel2/GlobusSatProject/..//hal/hal/lib\libHALD.a(Time.o)
 .text.Time_setUnixEpoch
                0x2001420c       0x54 C:/Users/ground/Documents/GitHub/tevel2/GlobusSatProject/..//hal/hal/lib\libHALD.a(Time.o)
                0x2001420c                Time_setUnixEpoch
 .text.Time_getUptimeSeconds
                0x20014260       0x28 C:/Users/ground/Documents/GitHub/tevel2/GlobusSatProject/..//hal/hal/lib\libHALD.a(Time.o)
                0x20014260                Time_getUptimeSeconds
 .text.Time_sync
                0x20014288      0x1a8 C:/Users/ground/Documents/GitHub/tevel2/GlobusSatProject/..//hal/hal/lib\libHALD.a(Time.o)
                0x20014288                Time_sync
 .text.Time_syncIfNeeded
                0x20014430       0xac C:/Users/ground/Documents/GitHub/tevel2/GlobusSatProject/..//hal/hal/lib\libHALD.a(Time.o)
                0x20014430                Time_syncIfNeeded
 .text.WDT_start
                0x200144dc       0x48 C:/Users/ground/Documents/GitHub/tevel2/GlobusSatProject/..//hal/hal/lib\libHALD.a(WatchDogTimerNoOS.o)
                0x200144dc                WDT_start
 .text.RTT_start
                0x20014524       0x24 C:/Users/ground/Documents/GitHub/tevel2/GlobusSatProject/..//hal/hal/lib\libHALD.a(RTT.o)
                0x20014524                RTT_start
 .text.RTT_GetTime
                0x20014548       0x24 C:/Users/ground/Documents/GitHub/tevel2/GlobusSatProject/..//hal/hal/lib\libHALD.a(RTT.o)
                0x20014548                RTT_GetTime
 .text.RTC_start
                0x2001456c       0x3c C:/Users/ground/Documents/GitHub/tevel2/GlobusSatProject/..//hal/hal/lib\libHALD.a(RTC.o)
                0x2001456c                RTC_start
 .text.RTC_setTime
                0x200145a8      0x2a4 C:/Users/ground/Documents/GitHub/tevel2/GlobusSatProject/..//hal/hal/lib\libHALD.a(RTC.o)
                0x200145a8                RTC_setTime
 .text.RTC_getTime
                0x2001484c      0x230 C:/Users/ground/Documents/GitHub/tevel2/GlobusSatProject/..//hal/hal/lib\libHALD.a(RTC.o)
                0x2001484c                RTC_getTime
 .text.RTC_checkTimeValid
                0x20014a7c       0xd8 C:/Users/ground/Documents/GitHub/tevel2/GlobusSatProject/..//hal/hal/lib\libHALD.a(RTC.o)
                0x20014a7c                RTC_checkTimeValid
 .text.WDT_startWatchdogKickTask
                0x20014b54       0xb4 C:/Users/ground/Documents/GitHub/tevel2/GlobusSatProject/..//hal/hal/lib\libHALD.a(WatchDogTimerOS.o)
                0x20014b54                WDT_startWatchdogKickTask
 .text.WDT_forceKickEveryNms
                0x20014c08       0x50 C:/Users/ground/Documents/GitHub/tevel2/GlobusSatProject/..//hal/hal/lib\libHALD.a(WatchDogTimerOS.o)
                0x20014c08                WDT_forceKickEveryNms
 .text.LED_glow
                0x20014c58       0x58 C:/Users/ground/Documents/GitHub/tevel2/GlobusSatProject/..//hal/hal/lib\libHALD.a(LED.o)
                0x20014c58                LED_glow
 .text.LED_dark
                0x20014cb0       0x58 C:/Users/ground/Documents/GitHub/tevel2/GlobusSatProject/..//hal/hal/lib\libHALD.a(LED.o)
                0x20014cb0                LED_dark
 .text.LED_toggle
                0x20014d08       0x50 C:/Users/ground/Documents/GitHub/tevel2/GlobusSatProject/..//hal/hal/lib\libHALD.a(LED.o)
                0x20014d08                LED_toggle
 .text.fm_initvolume
                0x20014d58       0x70 C:/Users/ground/Documents/GitHub/tevel2/GlobusSatProject/..//hal/hcc/lib\libHCCD.a(fat_m.o)
                0x20014d58                fm_initvolume
 .text.fm_delvolume
                0x20014dc8       0x60 C:/Users/ground/Documents/GitHub/tevel2/GlobusSatProject/..//hal/hcc/lib\libHCCD.a(fat_m.o)
                0x20014dc8                fm_delvolume
 .text.fm_format
                0x20014e28       0x68 C:/Users/ground/Documents/GitHub/tevel2/GlobusSatProject/..//hal/hcc/lib\libHCCD.a(fat_m.o)
                0x20014e28                fm_format
 .text.fm_getdrive
                0x20014e90       0x70 C:/Users/ground/Documents/GitHub/tevel2/GlobusSatProject/..//hal/hcc/lib\libHCCD.a(fat_m.o)
                0x20014e90                fm_getdrive
 .text.fm_getfreespace
                0x20014f00       0x68 C:/Users/ground/Documents/GitHub/tevel2/GlobusSatProject/..//hal/hcc/lib\libHCCD.a(fat_m.o)
                0x20014f00                fm_getfreespace
 .text.fm_mkdir
                0x20014f68       0x60 C:/Users/ground/Documents/GitHub/tevel2/GlobusSatProject/..//hal/hcc/lib\libHCCD.a(fat_m.o)
                0x20014f68                fm_mkdir
 .text.fm_rename
                0x20014fc8       0x68 C:/Users/ground/Documents/GitHub/tevel2/GlobusSatProject/..//hal/hcc/lib\libHCCD.a(fat_m.o)
                0x20014fc8                fm_rename
 .text.fm_filelength
                0x20015030       0x60 C:/Users/ground/Documents/GitHub/tevel2/GlobusSatProject/..//hal/hcc/lib\libHCCD.a(fat_m.o)
                0x20015030                fm_filelength
 .text.fm_close
                0x20015090       0x60 C:/Users/ground/Documents/GitHub/tevel2/GlobusSatProject/..//hal/hcc/lib\libHCCD.a(fat_m.o)
                0x20015090                fm_close
 .text.fm_flush
                0x200150f0       0x60 C:/Users/ground/Documents/GitHub/tevel2/GlobusSatProject/..//hal/hcc/lib\libHCCD.a(fat_m.o)
                0x200150f0                fm_flush
 .text.fm_open  0x20015150       0x68 C:/Users/ground/Documents/GitHub/tevel2/GlobusSatProject/..//hal/hcc/lib\libHCCD.a(fat_m.o)
                0x20015150                fm_open
 .text.fm_read  0x200151b8       0x7c C:/Users/ground/Documents/GitHub/tevel2/GlobusSatProject/..//hal/hcc/lib\libHCCD.a(fat_m.o)
                0x200151b8                fm_read
 .text.fm_write
                0x20015234       0x7c C:/Users/ground/Documents/GitHub/tevel2/GlobusSatProject/..//hal/hcc/lib\libHCCD.a(fat_m.o)
                0x20015234                fm_write
 .text.fm_seek  0x200152b0       0x70 C:/Users/ground/Documents/GitHub/tevel2/GlobusSatProject/..//hal/hcc/lib\libHCCD.a(fat_m.o)
                0x200152b0                fm_seek
 .text.fm_delete
                0x20015320       0x64 C:/Users/ground/Documents/GitHub/tevel2/GlobusSatProject/..//hal/hcc/lib\libHCCD.a(fat_m.o)
                0x20015320                fm_delete
 .text.fm_getlasterror
                0x20015384       0x40 C:/Users/ground/Documents/GitHub/tevel2/GlobusSatProject/..//hal/hcc/lib\libHCCD.a(fat_m.o)
                0x20015384                fm_getlasterror
 .text._f_invalidatedir
                0x200153c4       0x28 C:/Users/ground/Documents/GitHub/tevel2/GlobusSatProject/..//hal/hcc/lib\libHCCD.a(fat.o)
                0x200153c4                _f_invalidatedir
 .text._f_getdirsector
                0x200153ec       0x88 C:/Users/ground/Documents/GitHub/tevel2/GlobusSatProject/..//hal/hcc/lib\libHCCD.a(fat.o)
                0x200153ec                _f_getdirsector
 .text._f_writedirsector
                0x20015474       0x74 C:/Users/ground/Documents/GitHub/tevel2/GlobusSatProject/..//hal/hcc/lib\libHCCD.a(fat.o)
                0x20015474                _f_writedirsector
 .text._f_checknameinv
                0x200154e8      0x180 C:/Users/ground/Documents/GitHub/tevel2/GlobusSatProject/..//hal/hcc/lib\libHCCD.a(fat.o)
 .text._f_checkname
                0x20015668       0x7c C:/Users/ground/Documents/GitHub/tevel2/GlobusSatProject/..//hal/hcc/lib\libHCCD.a(fat.o)
 .text._f_checknamewc
                0x200156e4       0xf8 C:/Users/ground/Documents/GitHub/tevel2/GlobusSatProject/..//hal/hcc/lib\libHCCD.a(fat.o)
 .text._f_setnameext
                0x200157dc      0x300 C:/Users/ground/Documents/GitHub/tevel2/GlobusSatProject/..//hal/hcc/lib\libHCCD.a(fat.o)
 .text._f_setfsname
                0x20015adc      0x584 C:/Users/ground/Documents/GitHub/tevel2/GlobusSatProject/..//hal/hcc/lib\libHCCD.a(fat.o)
 .text._f_findfile
                0x20016060      0x30c C:/Users/ground/Documents/GitHub/tevel2/GlobusSatProject/..//hal/hcc/lib\libHCCD.a(fat.o)
 .text._f_findpath
                0x2001636c      0x35c C:/Users/ground/Documents/GitHub/tevel2/GlobusSatProject/..//hal/hcc/lib\libHCCD.a(fat.o)
 .text.fn_getdcwd
                0x200166c8      0x1e0 C:/Users/ground/Documents/GitHub/tevel2/GlobusSatProject/..//hal/hcc/lib\libHCCD.a(fat.o)
                0x200166c8                fn_getdcwd
 .text.fn_move  0x200168a8      0xad0 C:/Users/ground/Documents/GitHub/tevel2/GlobusSatProject/..//hal/hcc/lib\libHCCD.a(fat.o)
                0x200168a8                fn_move
 .text.fn_rename
                0x20017378      0x214 C:/Users/ground/Documents/GitHub/tevel2/GlobusSatProject/..//hal/hcc/lib\libHCCD.a(fat.o)
                0x20017378                fn_rename
 .text._f_lock_resfile
                0x2001758c       0x6c C:/Users/ground/Documents/GitHub/tevel2/GlobusSatProject/..//hal/hcc/lib\libHCCD.a(fat.o)
 .text._f_unlock_resfile
                0x200175f8       0x40 C:/Users/ground/Documents/GitHub/tevel2/GlobusSatProject/..//hal/hcc/lib\libHCCD.a(fat.o)
 .text._f_getintfile
                0x20017638      0x124 C:/Users/ground/Documents/GitHub/tevel2/GlobusSatProject/..//hal/hcc/lib\libHCCD.a(fat.o)
 .text._f_addentry
                0x2001775c      0x540 C:/Users/ground/Documents/GitHub/tevel2/GlobusSatProject/..//hal/hcc/lib\libHCCD.a(fat.o)
 .text.fn_mkdir
                0x20017c9c      0x75c C:/Users/ground/Documents/GitHub/tevel2/GlobusSatProject/..//hal/hcc/lib\libHCCD.a(fat.o)
                0x20017c9c                fn_mkdir
 .text.fn_filelength
                0x200183f8      0x1cc C:/Users/ground/Documents/GitHub/tevel2/GlobusSatProject/..//hal/hcc/lib\libHCCD.a(fat.o)
                0x200183f8                fn_filelength
 .text.fn_open_sub
                0x200185c4     0x1698 C:/Users/ground/Documents/GitHub/tevel2/GlobusSatProject/..//hal/hcc/lib\libHCCD.a(fat.o)
 .text.fn_open  0x20019c5c       0x44 C:/Users/ground/Documents/GitHub/tevel2/GlobusSatProject/..//hal/hcc/lib\libHCCD.a(fat.o)
                0x20019c5c                fn_open
 .text.fn_delete
                0x20019ca0      0x490 C:/Users/ground/Documents/GitHub/tevel2/GlobusSatProject/..//hal/hcc/lib\libHCCD.a(fat.o)
                0x20019ca0                fn_delete
 .text.fn_init  0x2001a130      0x2dc C:/Users/ground/Documents/GitHub/tevel2/GlobusSatProject/..//hal/hcc/lib\libHCCD.a(fat_common.o)
                0x2001a130                fn_init
 .text.fsn_delete
                0x2001a40c       0xc8 C:/Users/ground/Documents/GitHub/tevel2/GlobusSatProject/..//hal/hcc/lib\libHCCD.a(fat_common.o)
                0x2001a40c                fsn_delete
 .text._f_get16bitl
                0x2001a4d4       0x4c C:/Users/ground/Documents/GitHub/tevel2/GlobusSatProject/..//hal/hcc/lib\libHCCD.a(fat_common.o)
                0x2001a4d4                _f_get16bitl
 .text._f_set16bitl
                0x2001a520       0x54 C:/Users/ground/Documents/GitHub/tevel2/GlobusSatProject/..//hal/hcc/lib\libHCCD.a(fat_common.o)
                0x2001a520                _f_set16bitl
 .text._f_get32bitl
                0x2001a574       0x68 C:/Users/ground/Documents/GitHub/tevel2/GlobusSatProject/..//hal/hcc/lib\libHCCD.a(fat_common.o)
                0x2001a574                _f_get32bitl
 .text._f_set32bitl
                0x2001a5dc       0x78 C:/Users/ground/Documents/GitHub/tevel2/GlobusSatProject/..//hal/hcc/lib\libHCCD.a(fat_common.o)
                0x2001a5dc                _f_set32bitl
 .text._get8bit
                0x2001a654       0xa0 C:/Users/ground/Documents/GitHub/tevel2/GlobusSatProject/..//hal/hcc/lib\libHCCD.a(fat_common.o)
 .text._get16bitl
                0x2001a6f4       0x40 C:/Users/ground/Documents/GitHub/tevel2/GlobusSatProject/..//hal/hcc/lib\libHCCD.a(fat_common.o)
 .text._get32bitl
                0x2001a734       0x3c C:/Users/ground/Documents/GitHub/tevel2/GlobusSatProject/..//hal/hcc/lib\libHCCD.a(fat_common.o)
 .text._set8bitzero
                0x2001a770       0x6c C:/Users/ground/Documents/GitHub/tevel2/GlobusSatProject/..//hal/hcc/lib\libHCCD.a(fat_common.o)
 .text._set8bit
                0x2001a7dc       0xa0 C:/Users/ground/Documents/GitHub/tevel2/GlobusSatProject/..//hal/hcc/lib\libHCCD.a(fat_common.o)
 .text._set16bitl
                0x2001a87c       0x3c C:/Users/ground/Documents/GitHub/tevel2/GlobusSatProject/..//hal/hcc/lib\libHCCD.a(fat_common.o)
 .text._set32bitl
                0x2001a8b8       0x34 C:/Users/ground/Documents/GitHub/tevel2/GlobusSatProject/..//hal/hcc/lib\libHCCD.a(fat_common.o)
 .text._f_setcardremoved
                0x2001a8ec       0x94 C:/Users/ground/Documents/GitHub/tevel2/GlobusSatProject/..//hal/hcc/lib\libHCCD.a(fat_common.o)
 .text._f_checkstatus
                0x2001a980      0x104 C:/Users/ground/Documents/GitHub/tevel2/GlobusSatProject/..//hal/hcc/lib\libHCCD.a(fat_common.o)
                0x2001a980                _f_checkstatus
 .text._f_drvgetphy
                0x2001aa84      0x114 C:/Users/ground/Documents/GitHub/tevel2/GlobusSatProject/..//hal/hcc/lib\libHCCD.a(fat_common.o)
 .text._f_drvwritesector
                0x2001ab98       0xdc C:/Users/ground/Documents/GitHub/tevel2/GlobusSatProject/..//hal/hcc/lib\libHCCD.a(fat_common.o)
 .text._f_drvreadsector
                0x2001ac74       0xa8 C:/Users/ground/Documents/GitHub/tevel2/GlobusSatProject/..//hal/hcc/lib\libHCCD.a(fat_common.o)
 .text._f_writesector
                0x2001ad1c      0x23c C:/Users/ground/Documents/GitHub/tevel2/GlobusSatProject/..//hal/hcc/lib\libHCCD.a(fat_common.o)
                0x2001ad1c                _f_writesector
 .text._f_readsector
                0x2001af58      0x1dc C:/Users/ground/Documents/GitHub/tevel2/GlobusSatProject/..//hal/hcc/lib\libHCCD.a(fat_common.o)
                0x2001af58                _f_readsector
 .text._f_getmaxcluster
                0x2001b134       0x94 C:/Users/ground/Documents/GitHub/tevel2/GlobusSatProject/..//hal/hcc/lib\libHCCD.a(fat_common.o)
                0x2001b134                _f_getmaxcluster
 .text._getsectorfromcluster
                0x2001b1c8       0x68 C:/Users/ground/Documents/GitHub/tevel2/GlobusSatProject/..//hal/hcc/lib\libHCCD.a(fat_common.o)
 .text._f_buildsectors
                0x2001b230      0x268 C:/Users/ground/Documents/GitHub/tevel2/GlobusSatProject/..//hal/hcc/lib\libHCCD.a(fat_common.o)
 .text._f_getbootrecord
                0x2001b498      0x5e4 C:/Users/ground/Documents/GitHub/tevel2/GlobusSatProject/..//hal/hcc/lib\libHCCD.a(fat_common.o)
 .text._f_readbootrecord
                0x2001ba7c      0x4f8 C:/Users/ground/Documents/GitHub/tevel2/GlobusSatProject/..//hal/hcc/lib\libHCCD.a(fat_common.o)
 .text._f_writebootrecord
                0x2001bf74      0x5e4 C:/Users/ground/Documents/GitHub/tevel2/GlobusSatProject/..//hal/hcc/lib\libHCCD.a(fat_common.o)
 .text._f_flushcffiles
                0x2001c558      0x17c C:/Users/ground/Documents/GitHub/tevel2/GlobusSatProject/..//hal/hcc/lib\libHCCD.a(fat_common.o)
                0x2001c558                _f_flushcffiles
 .text._f_fatcache_flush
                0x2001c6d4      0x270 C:/Users/ground/Documents/GitHub/tevel2/GlobusSatProject/..//hal/hcc/lib\libHCCD.a(fat_common.o)
                0x2001c6d4                _f_fatcache_flush
 .text._f_writefatsector
                0x2001c944      0x100 C:/Users/ground/Documents/GitHub/tevel2/GlobusSatProject/..//hal/hcc/lib\libHCCD.a(fat_common.o)
                0x2001c944                _f_writefatsector
 .text._f_getfatsector
                0x2001ca44      0x3bc C:/Users/ground/Documents/GitHub/tevel2/GlobusSatProject/..//hal/hcc/lib\libHCCD.a(fat_common.o)
 .text._f_setclustervalue
                0x2001ce00      0x490 C:/Users/ground/Documents/GitHub/tevel2/GlobusSatProject/..//hal/hcc/lib\libHCCD.a(fat_common.o)
                0x2001ce00                _f_setclustervalue
 .text._f_getclustervalue
                0x2001d290      0x388 C:/Users/ground/Documents/GitHub/tevel2/GlobusSatProject/..//hal/hcc/lib\libHCCD.a(fat_common.o)
                0x2001d290                _f_getclustervalue
 .text._f_close_drive_files
                0x2001d618       0xac C:/Users/ground/Documents/GitHub/tevel2/GlobusSatProject/..//hal/hcc/lib\libHCCD.a(fat_common.o)
 .text._f_inc_mount_count
                0x2001d6c4       0xa4 C:/Users/ground/Documents/GitHub/tevel2/GlobusSatProject/..//hal/hcc/lib\libHCCD.a(fat_common.o)
 .text._f_getvolume
                0x2001d768      0x2f8 C:/Users/ground/Documents/GitHub/tevel2/GlobusSatProject/..//hal/hcc/lib\libHCCD.a(fat_common.o)
                0x2001d768                _f_getvolume
 .text.fn_createdriver
                0x2001da60      0x118 C:/Users/ground/Documents/GitHub/tevel2/GlobusSatProject/..//hal/hcc/lib\libHCCD.a(fat_common.o)
                0x2001da60                fn_createdriver
 .text.fn_initvolume
                0x2001db78      0x12c C:/Users/ground/Documents/GitHub/tevel2/GlobusSatProject/..//hal/hcc/lib\libHCCD.a(fat_common.o)
                0x2001db78                fn_initvolume
 .text.fn_releasedriver
                0x2001dca4       0xf4 C:/Users/ground/Documents/GitHub/tevel2/GlobusSatProject/..//hal/hcc/lib\libHCCD.a(fat_common.o)
                0x2001dca4                fn_releasedriver
 .text.fn_initvolumepartition_sub
                0x2001dd98       0xe0 C:/Users/ground/Documents/GitHub/tevel2/GlobusSatProject/..//hal/hcc/lib\libHCCD.a(fat_common.o)
 .text.fn_initvolumepartition
                0x2001de78       0xac C:/Users/ground/Documents/GitHub/tevel2/GlobusSatProject/..//hal/hcc/lib\libHCCD.a(fat_common.o)
                0x2001de78                fn_initvolumepartition
 .text.fn_delvolume
                0x2001df24      0x194 C:/Users/ground/Documents/GitHub/tevel2/GlobusSatProject/..//hal/hcc/lib\libHCCD.a(fat_common.o)
                0x2001df24                fn_delvolume
 .text._f_clustertopos
                0x2001e0b8       0xf8 C:/Users/ground/Documents/GitHub/tevel2/GlobusSatProject/..//hal/hcc/lib\libHCCD.a(fat_common.o)
                0x2001e0b8                _f_clustertopos
 .text._f_prepareformat
                0x2001e1b0      0x8b8 C:/Users/ground/Documents/GitHub/tevel2/GlobusSatProject/..//hal/hcc/lib\libHCCD.a(fat_common.o)
 .text._f_resetfatentries
                0x2001ea68      0x410 C:/Users/ground/Documents/GitHub/tevel2/GlobusSatProject/..//hal/hcc/lib\libHCCD.a(fat_common.o)
 .text._f_resetrootdir
                0x2001ee78       0xcc C:/Users/ground/Documents/GitHub/tevel2/GlobusSatProject/..//hal/hcc/lib\libHCCD.a(fat_common.o)
 .text._f_postformat
                0x2001ef44      0x178 C:/Users/ground/Documents/GitHub/tevel2/GlobusSatProject/..//hal/hcc/lib\libHCCD.a(fat_common.o)
 .text.fn_format
                0x2001f0bc      0x148 C:/Users/ground/Documents/GitHub/tevel2/GlobusSatProject/..//hal/hcc/lib\libHCCD.a(fat_common.o)
                0x2001f0bc                fn_format
 .text._f_getcurrsector
                0x2001f204      0x6c8 C:/Users/ground/Documents/GitHub/tevel2/GlobusSatProject/..//hal/hcc/lib\libHCCD.a(fat_common.o)
                0x2001f204                _f_getcurrsector
 .text._f_getdecluster
                0x2001f8cc       0x90 C:/Users/ground/Documents/GitHub/tevel2/GlobusSatProject/..//hal/hcc/lib\libHCCD.a(fat_common.o)
                0x2001f8cc                _f_getdecluster
 .text._f_setdecluster
                0x2001f95c       0x8c C:/Users/ground/Documents/GitHub/tevel2/GlobusSatProject/..//hal/hcc/lib\libHCCD.a(fat_common.o)
                0x2001f95c                _f_setdecluster
 .text.fn_getdrive
                0x2001f9e8       0x30 C:/Users/ground/Documents/GitHub/tevel2/GlobusSatProject/..//hal/hcc/lib\libHCCD.a(fat_common.o)
                0x2001f9e8                fn_getdrive
 .text._f_getcurrenttimedate
                0x2001fa18      0x138 C:/Users/ground/Documents/GitHub/tevel2/GlobusSatProject/..//hal/hcc/lib\libHCCD.a(fat_common.o)
                0x2001fa18                _f_getcurrenttimedate
 .text._f_initentry
                0x2001fb50       0xa0 C:/Users/ground/Documents/GitHub/tevel2/GlobusSatProject/..//hal/hcc/lib\libHCCD.a(fat_common.o)
                0x2001fb50                _f_initentry
 .text._f_alloccluster
                0x2001fbf0      0x344 C:/Users/ground/Documents/GitHub/tevel2/GlobusSatProject/..//hal/hcc/lib\libHCCD.a(fat_common.o)
                0x2001fbf0                _f_alloccluster
 .text._f_dobadblock
                0x2001ff34      0x2cc C:/Users/ground/Documents/GitHub/tevel2/GlobusSatProject/..//hal/hcc/lib\libHCCD.a(fat_common.o)
                0x2001ff34                _f_dobadblock
 .text._f_checklocked
                0x20020200       0xe4 C:/Users/ground/Documents/GitHub/tevel2/GlobusSatProject/..//hal/hcc/lib\libHCCD.a(fat_common.o)
                0x20020200                _f_checklocked
 .text._f_checkappendlocked
                0x200202e4      0x110 C:/Users/ground/Documents/GitHub/tevel2/GlobusSatProject/..//hal/hcc/lib\libHCCD.a(fat_common.o)
                0x200202e4                _f_checkappendlocked
 .text._f_setsyncafile
                0x200203f4      0x114 C:/Users/ground/Documents/GitHub/tevel2/GlobusSatProject/..//hal/hcc/lib\libHCCD.a(fat_common.o)
                0x200203f4                _f_setsyncafile
 .text._f_syncfiles
                0x20020508      0x128 C:/Users/ground/Documents/GitHub/tevel2/GlobusSatProject/..//hal/hcc/lib\libHCCD.a(fat_common.o)
                0x20020508                _f_syncfiles
 .text._f_syncfilescontent
                0x20020630      0x15c C:/Users/ground/Documents/GitHub/tevel2/GlobusSatProject/..//hal/hcc/lib\libHCCD.a(fat_common.o)
 .text.fn_getfreespace
                0x2002078c      0x4c0 C:/Users/ground/Documents/GitHub/tevel2/GlobusSatProject/..//hal/hcc/lib\libHCCD.a(fat_common.o)
                0x2002078c                fn_getfreespace
 .text._f_emptywritecache
                0x20020c4c      0x4a4 C:/Users/ground/Documents/GitHub/tevel2/GlobusSatProject/..//hal/hcc/lib\libHCCD.a(fat_common.o)
 .text._f_allocnextcluster
                0x200210f0      0x54c C:/Users/ground/Documents/GitHub/tevel2/GlobusSatProject/..//hal/hcc/lib\libHCCD.a(fat_common.o)
 .text._f_emptywritebuffer
                0x2002163c      0x20c C:/Users/ground/Documents/GitHub/tevel2/GlobusSatProject/..//hal/hcc/lib\libHCCD.a(fat_common.o)
 .text._f_writezeros
                0x20021848       0xf0 C:/Users/ground/Documents/GitHub/tevel2/GlobusSatProject/..//hal/hcc/lib\libHCCD.a(fat_common.o)
                0x20021848                _f_writezeros
 .text._f_extend_file
                0x20021938      0x570 C:/Users/ground/Documents/GitHub/tevel2/GlobusSatProject/..//hal/hcc/lib\libHCCD.a(fat_common.o)
 .text._f_fseek
                0x20021ea8      0x9bc C:/Users/ground/Documents/GitHub/tevel2/GlobusSatProject/..//hal/hcc/lib\libHCCD.a(fat_common.o)
                0x20021ea8                _f_fseek
 .text._f_removechain
                0x20022864      0x104 C:/Users/ground/Documents/GitHub/tevel2/GlobusSatProject/..//hal/hcc/lib\libHCCD.a(fat_common.o)
                0x20022864                _f_removechain
 .text._f_updatefileentry
                0x20022968      0x1cc C:/Users/ground/Documents/GitHub/tevel2/GlobusSatProject/..//hal/hcc/lib\libHCCD.a(fat_common.o)
 .text._f_checkreadlocked
                0x20022b34      0x1bc C:/Users/ground/Documents/GitHub/tevel2/GlobusSatProject/..//hal/hcc/lib\libHCCD.a(fat_common.o)
                0x20022b34                _f_checkreadlocked
 .text._f_check_handle
                0x20022cf0       0x98 C:/Users/ground/Documents/GitHub/tevel2/GlobusSatProject/..//hal/hcc/lib\libHCCD.a(fat_common.o)
                0x20022cf0                _f_check_handle
 .text._f_removesyncafile
                0x20022d88      0x1ec C:/Users/ground/Documents/GitHub/tevel2/GlobusSatProject/..//hal/hcc/lib\libHCCD.a(fat_common.o)
 .text.fn_close
                0x20022f74      0x3f8 C:/Users/ground/Documents/GitHub/tevel2/GlobusSatProject/..//hal/hcc/lib\libHCCD.a(fat_common.o)
                0x20022f74                fn_close
 .text.fn_flush
                0x2002336c      0x374 C:/Users/ground/Documents/GitHub/tevel2/GlobusSatProject/..//hal/hcc/lib\libHCCD.a(fat_common.o)
                0x2002336c                fn_flush
 .text.fn_read  0x200236e0      0x690 C:/Users/ground/Documents/GitHub/tevel2/GlobusSatProject/..//hal/hcc/lib\libHCCD.a(fat_common.o)
                0x200236e0                fn_read
 .text._f_abortwrite
                0x20023d70      0x100 C:/Users/ground/Documents/GitHub/tevel2/GlobusSatProject/..//hal/hcc/lib\libHCCD.a(fat_common.o)
 .text._f_checkwritecluster
                0x20023e70       0xe4 C:/Users/ground/Documents/GitHub/tevel2/GlobusSatProject/..//hal/hcc/lib\libHCCD.a(fat_common.o)
 .text.fn_write
                0x20023f54      0x8a8 C:/Users/ground/Documents/GitHub/tevel2/GlobusSatProject/..//hal/hcc/lib\libHCCD.a(fat_common.o)
                0x20023f54                fn_write
 .text.fn_seek  0x200247fc      0x270 C:/Users/ground/Documents/GitHub/tevel2/GlobusSatProject/..//hal/hcc/lib\libHCCD.a(fat_common.o)
                0x200247fc                fn_seek
 .text.f_enterFS
                0x20024a6c      0x1c0 C:/Users/ground/Documents/GitHub/tevel2/GlobusSatProject/..//hal/hcc/lib\libHCCD.a(fat_common.o)
                0x20024a6c                f_enterFS
 .text.fnGetTask
                0x20024c2c       0xfc C:/Users/ground/Documents/GitHub/tevel2/GlobusSatProject/..//hal/hcc/lib\libHCCD.a(fat_common.o)
                0x20024c2c                fnGetTask
 .text._f_mutex_get
                0x20024d28       0x98 C:/Users/ground/Documents/GitHub/tevel2/GlobusSatProject/..//hal/hcc/lib\libHCCD.a(fat_common.o)
                0x20024d28                _f_mutex_get
 .text._f_mutex_put
                0x20024dc0       0x54 C:/Users/ground/Documents/GitHub/tevel2/GlobusSatProject/..//hal/hcc/lib\libHCCD.a(fat_common.o)
                0x20024dc0                _f_mutex_put
 .text._fn_initseekdivisor
                0x20024e14      0x158 C:/Users/ground/Documents/GitHub/tevel2/GlobusSatProject/..//hal/hcc/lib\libHCCD.a(fat_common.o)
                0x20024e14                _fn_initseekdivisor
 .text._fn_updateseekpos
                0x20024f6c       0xc4 C:/Users/ground/Documents/GitHub/tevel2/GlobusSatProject/..//hal/hcc/lib\libHCCD.a(fat_common.o)
 .text._f_findopensize
                0x20025030       0x2c C:/Users/ground/Documents/GitHub/tevel2/GlobusSatProject/..//hal/hcc/lib\libHCCD.a(fat_common.o)
                0x20025030                _f_findopensize
 .text.fn_setlasterror
                0x2002505c       0x34 C:/Users/ground/Documents/GitHub/tevel2/GlobusSatProject/..//hal/hcc/lib\libHCCD.a(fat_common.o)
                0x2002505c                fn_setlasterror
 .text.fn_setlasterror_noret
                0x20025090       0x2c C:/Users/ground/Documents/GitHub/tevel2/GlobusSatProject/..//hal/hcc/lib\libHCCD.a(fat_common.o)
                0x20025090                fn_setlasterror_noret
 .text._s_checkzeroclusteratend
                0x200250bc       0xf8 C:/Users/ground/Documents/GitHub/tevel2/GlobusSatProject/..//hal/hcc/lib\libHCCD.a(safefat.o)
 .text._s_clearclustercontent
                0x200251b4      0x108 C:/Users/ground/Documents/GitHub/tevel2/GlobusSatProject/..//hal/hcc/lib\libHCCD.a(safefat.o)
 .text._s_clearclustercontentdir
                0x200252bc      0x19c C:/Users/ground/Documents/GitHub/tevel2/GlobusSatProject/..//hal/hcc/lib\libHCCD.a(safefat.o)
 .text._s_writedirsector
                0x20025458       0xd0 C:/Users/ground/Documents/GitHub/tevel2/GlobusSatProject/..//hal/hcc/lib\libHCCD.a(safefat.o)
 .text._s_getdirsector
                0x20025528      0x100 C:/Users/ground/Documents/GitHub/tevel2/GlobusSatProject/..//hal/hcc/lib\libHCCD.a(safefat.o)
 .text._s_addentry
                0x20025628      0x394 C:/Users/ground/Documents/GitHub/tevel2/GlobusSatProject/..//hal/hcc/lib\libHCCD.a(safefat.o)
 .text._s_findfile
                0x200259bc      0x33c C:/Users/ground/Documents/GitHub/tevel2/GlobusSatProject/..//hal/hcc/lib\libHCCD.a(safefat.o)
 .text._s_findsubdir
                0x20025cf8      0x248 C:/Users/ground/Documents/GitHub/tevel2/GlobusSatProject/..//hal/hcc/lib\libHCCD.a(safefat.o)
 .text._s_createfile
                0x20025f40      0x190 C:/Users/ground/Documents/GitHub/tevel2/GlobusSatProject/..//hal/hcc/lib\libHCCD.a(safefat.o)
 .text._s_findsaffile
                0x200260d0      0x1b8 C:/Users/ground/Documents/GitHub/tevel2/GlobusSatProject/..//hal/hcc/lib\libHCCD.a(safefat.o)
 .text._s_open  0x20026288       0xe4 C:/Users/ground/Documents/GitHub/tevel2/GlobusSatProject/..//hal/hcc/lib\libHCCD.a(safefat.o)
 .text._s_open_saf
                0x2002636c       0xe8 C:/Users/ground/Documents/GitHub/tevel2/GlobusSatProject/..//hal/hcc/lib\libHCCD.a(safefat.o)
 .text._s_flush
                0x20026454       0x84 C:/Users/ground/Documents/GitHub/tevel2/GlobusSatProject/..//hal/hcc/lib\libHCCD.a(safefat.o)
 .text._s_allocnextcluster
                0x200264d8      0x13c C:/Users/ground/Documents/GitHub/tevel2/GlobusSatProject/..//hal/hcc/lib\libHCCD.a(safefat.o)
 .text._s_getnextsector
                0x20026614       0xdc C:/Users/ground/Documents/GitHub/tevel2/GlobusSatProject/..//hal/hcc/lib\libHCCD.a(safefat.o)
 .text._s_seek  0x200266f0      0x1e8 C:/Users/ground/Documents/GitHub/tevel2/GlobusSatProject/..//hal/hcc/lib\libHCCD.a(safefat.o)
 .text._s_get_len
                0x200268d8      0x10c C:/Users/ground/Documents/GitHub/tevel2/GlobusSatProject/..//hal/hcc/lib\libHCCD.a(safefat.o)
 .text._s_set_len
                0x200269e4       0xb4 C:/Users/ground/Documents/GitHub/tevel2/GlobusSatProject/..//hal/hcc/lib\libHCCD.a(safefat.o)
 .text.safe_fix_filelengths
                0x20026a98       0xcc C:/Users/ground/Documents/GitHub/tevel2/GlobusSatProject/..//hal/hcc/lib\libHCCD.a(safefat.o)
                0x20026a98                safe_fix_filelengths
 .text._s_read  0x20026b64      0x228 C:/Users/ground/Documents/GitHub/tevel2/GlobusSatProject/..//hal/hcc/lib\libHCCD.a(safefat.o)
 .text._s_write
                0x20026d8c      0x384 C:/Users/ground/Documents/GitHub/tevel2/GlobusSatProject/..//hal/hcc/lib\libHCCD.a(safefat.o)
 .text._s_restoreclusters
                0x20027110      0x270 C:/Users/ground/Documents/GitHub/tevel2/GlobusSatProject/..//hal/hcc/lib\libHCCD.a(safefat.o)
                0x20027110                _s_restoreclusters
 .text._s_findrestore
                0x20027380      0x18c C:/Users/ground/Documents/GitHub/tevel2/GlobusSatProject/..//hal/hcc/lib\libHCCD.a(safefat.o)
 .text._s_cmd_writede
                0x2002750c       0xd8 C:/Users/ground/Documents/GitHub/tevel2/GlobusSatProject/..//hal/hcc/lib\libHCCD.a(safefat.o)
 .text._s_cmd_setcluster
                0x200275e4       0x88 C:/Users/ground/Documents/GitHub/tevel2/GlobusSatProject/..//hal/hcc/lib\libHCCD.a(safefat.o)
 .text._s_cmd_deletechain
                0x2002766c      0x100 C:/Users/ground/Documents/GitHub/tevel2/GlobusSatProject/..//hal/hcc/lib\libHCCD.a(safefat.o)
 .text._s_cmd_validatecfn
                0x2002776c      0x308 C:/Users/ground/Documents/GitHub/tevel2/GlobusSatProject/..//hal/hcc/lib\libHCCD.a(safefat.o)
 .text._s_cmd_seteof
                0x20027a74      0x3c4 C:/Users/ground/Documents/GitHub/tevel2/GlobusSatProject/..//hal/hcc/lib\libHCCD.a(safefat.o)
 .text.safe_docommands
                0x20027e38      0x56c C:/Users/ground/Documents/GitHub/tevel2/GlobusSatProject/..//hal/hcc/lib\libHCCD.a(safefat.o)
                0x20027e38                safe_docommands
 .text.safe_entercommand
                0x200283a4       0x68 C:/Users/ground/Documents/GitHub/tevel2/GlobusSatProject/..//hal/hcc/lib\libHCCD.a(safefat.o)
                0x200283a4                safe_entercommand
 .text.safe_ready
                0x2002840c       0xf4 C:/Users/ground/Documents/GitHub/tevel2/GlobusSatProject/..//hal/hcc/lib\libHCCD.a(safefat.o)
                0x2002840c                safe_ready
 .text.safe_copycfn
                0x20028500       0xb8 C:/Users/ground/Documents/GitHub/tevel2/GlobusSatProject/..//hal/hcc/lib\libHCCD.a(safefat.o)
                0x20028500                safe_copycfn
 .text.safe_cfremove
                0x200285b8       0xb8 C:/Users/ground/Documents/GitHub/tevel2/GlobusSatProject/..//hal/hcc/lib\libHCCD.a(safefat.o)
                0x200285b8                safe_cfremove
 .text.safe_writede
                0x20028670      0x104 C:/Users/ground/Documents/GitHub/tevel2/GlobusSatProject/..//hal/hcc/lib\libHCCD.a(safefat.o)
                0x20028670                safe_writede
 .text.safe_setcluster
                0x20028774       0xcc C:/Users/ground/Documents/GitHub/tevel2/GlobusSatProject/..//hal/hcc/lib\libHCCD.a(safefat.o)
                0x20028774                safe_setcluster
 .text.safe_deletechain
                0x20028840      0x1c8 C:/Users/ground/Documents/GitHub/tevel2/GlobusSatProject/..//hal/hcc/lib\libHCCD.a(safefat.o)
                0x20028840                safe_deletechain
 .text.safe_cfclose
                0x20028a08      0x104 C:/Users/ground/Documents/GitHub/tevel2/GlobusSatProject/..//hal/hcc/lib\libHCCD.a(safefat.o)
                0x20028a08                safe_cfclose
 .text.safe_cfflush
                0x20028b0c      0x124 C:/Users/ground/Documents/GitHub/tevel2/GlobusSatProject/..//hal/hcc/lib\libHCCD.a(safefat.o)
                0x20028b0c                safe_cfflush
 .text.safe_reset
                0x20028c30       0x78 C:/Users/ground/Documents/GitHub/tevel2/GlobusSatProject/..//hal/hcc/lib\libHCCD.a(safefat.o)
                0x20028c30                safe_reset
 .text.safe_loadcommands
                0x20028ca8       0x78 C:/Users/ground/Documents/GitHub/tevel2/GlobusSatProject/..//hal/hcc/lib\libHCCD.a(safefat.o)
                0x20028ca8                safe_loadcommands
 .text.safe_poweron
                0x20028d20      0x1fc C:/Users/ground/Documents/GitHub/tevel2/GlobusSatProject/..//hal/hcc/lib\libHCCD.a(safefat.o)
                0x20028d20                safe_poweron
 .text.cf_getname
                0x20028f1c       0xc0 C:/Users/ground/Documents/GitHub/tevel2/GlobusSatProject/..//hal/hcc/lib\libHCCD.a(safefat.o)
 .text.cf_copyclusterchain
                0x20028fdc      0x138 C:/Users/ground/Documents/GitHub/tevel2/GlobusSatProject/..//hal/hcc/lib\libHCCD.a(safefat.o)
 .text.cf_seektozero
                0x20029114       0x94 C:/Users/ground/Documents/GitHub/tevel2/GlobusSatProject/..//hal/hcc/lib\libHCCD.a(safefat.o)
                0x20029114                cf_seektozero
 .text.cf_create
                0x200291a8      0x3a8 C:/Users/ground/Documents/GitHub/tevel2/GlobusSatProject/..//hal/hcc/lib\libHCCD.a(safefat.o)
                0x200291a8                cf_create
 .text.cf_copyclustercontent
                0x20029550      0x128 C:/Users/ground/Documents/GitHub/tevel2/GlobusSatProject/..//hal/hcc/lib\libHCCD.a(safefat.o)
                0x20029550                cf_copyclustercontent
 .text.cf_copycfn
                0x20029678      0x4bc C:/Users/ground/Documents/GitHub/tevel2/GlobusSatProject/..//hal/hcc/lib\libHCCD.a(safefat.o)
                0x20029678                cf_copycfn
 .text.cf_remove
                0x20029b34      0x344 C:/Users/ground/Documents/GitHub/tevel2/GlobusSatProject/..//hal/hcc/lib\libHCCD.a(safefat.o)
                0x20029b34                cf_remove
 .text.cf_setclusternew
                0x20029e78       0xf0 C:/Users/ground/Documents/GitHub/tevel2/GlobusSatProject/..//hal/hcc/lib\libHCCD.a(safefat.o)
                0x20029e78                cf_setclusternew
 .text.cf_flush
                0x20029f68       0x58 C:/Users/ground/Documents/GitHub/tevel2/GlobusSatProject/..//hal/hcc/lib\libHCCD.a(safefat.o)
                0x20029f68                cf_flush
 .text.cf_getcluster
                0x20029fc0      0x1b4 C:/Users/ground/Documents/GitHub/tevel2/GlobusSatProject/..//hal/hcc/lib\libHCCD.a(safefat.o)
                0x20029fc0                cf_getcluster
 .text.cf_setnextcluster
                0x2002a174      0x194 C:/Users/ground/Documents/GitHub/tevel2/GlobusSatProject/..//hal/hcc/lib\libHCCD.a(safefat.o)
                0x2002a174                cf_setnextcluster
 .text.cf_getpositions
                0x2002a308       0xbc C:/Users/ground/Documents/GitHub/tevel2/GlobusSatProject/..//hal/hcc/lib\libHCCD.a(safefat.o)
                0x2002a308                cf_getpositions
 .text.cf_setpositions
                0x2002a3c4       0xb0 C:/Users/ground/Documents/GitHub/tevel2/GlobusSatProject/..//hal/hcc/lib\libHCCD.a(safefat.o)
                0x2002a3c4                cf_setpositions
 .text.cf_opensyncafile
                0x2002a474      0x150 C:/Users/ground/Documents/GitHub/tevel2/GlobusSatProject/..//hal/hcc/lib\libHCCD.a(safefat.o)
                0x2002a474                cf_opensyncafile
 .text.cf_reloadcfo
                0x2002a5c4       0xd8 C:/Users/ground/Documents/GitHub/tevel2/GlobusSatProject/..//hal/hcc/lib\libHCCD.a(safefat.o)
                0x2002a5c4                cf_reloadcfo
 .text.mcipdc_cmd
                0x2002a69c      0x22c C:/Users/ground/Documents/GitHub/tevel2/GlobusSatProject/..//hal/hcc/lib\libHCCD.a(atmel_mcipdc.o)
 .text.mcipdc_stop
                0x2002a8c8       0xfc C:/Users/ground/Documents/GitHub/tevel2/GlobusSatProject/..//hal/hcc/lib\libHCCD.a(atmel_mcipdc.o)
                0x2002a8c8                mcipdc_stop
 .text.mcipdc_read
                0x2002a9c4      0x27c C:/Users/ground/Documents/GitHub/tevel2/GlobusSatProject/..//hal/hcc/lib\libHCCD.a(atmel_mcipdc.o)
 .text.mcipdc_write
                0x2002ac40      0x298 C:/Users/ground/Documents/GitHub/tevel2/GlobusSatProject/..//hal/hcc/lib\libHCCD.a(atmel_mcipdc.o)
 .text.mcipdc_readsector
                0x2002aed8       0x9c C:/Users/ground/Documents/GitHub/tevel2/GlobusSatProject/..//hal/hcc/lib\libHCCD.a(atmel_mcipdc.o)
                0x2002aed8                mcipdc_readsector
 .text.mcipdc_readmultiplesector
                0x2002af74      0x124 C:/Users/ground/Documents/GitHub/tevel2/GlobusSatProject/..//hal/hcc/lib\libHCCD.a(atmel_mcipdc.o)
                0x2002af74                mcipdc_readmultiplesector
 .text.mcipdc_writesector
                0x2002b098       0x90 C:/Users/ground/Documents/GitHub/tevel2/GlobusSatProject/..//hal/hcc/lib\libHCCD.a(atmel_mcipdc.o)
                0x2002b098                mcipdc_writesector
 .text.mcipdc_writemultiplesector
                0x2002b128      0x120 C:/Users/ground/Documents/GitHub/tevel2/GlobusSatProject/..//hal/hcc/lib\libHCCD.a(atmel_mcipdc.o)
                0x2002b128                mcipdc_writemultiplesector
 .text.mcipdc_set_speed
                0x2002b248       0xb0 C:/Users/ground/Documents/GitHub/tevel2/GlobusSatProject/..//hal/hcc/lib\libHCCD.a(atmel_mcipdc.o)
 .text.mcipdc_get_speed
                0x2002b2f8       0x48 C:/Users/ground/Documents/GitHub/tevel2/GlobusSatProject/..//hal/hcc/lib\libHCCD.a(atmel_mcipdc.o)
 .text._get_csd_bits
                0x2002b340      0x14c C:/Users/ground/Documents/GitHub/tevel2/GlobusSatProject/..//hal/hcc/lib\libHCCD.a(atmel_mcipdc.o)
 .text.mcipdc_initcard
                0x2002b48c      0x8f4 C:/Users/ground/Documents/GitHub/tevel2/GlobusSatProject/..//hal/hcc/lib\libHCCD.a(atmel_mcipdc.o)
 .text.mcipdc_getstatus
                0x2002bd80       0xe8 C:/Users/ground/Documents/GitHub/tevel2/GlobusSatProject/..//hal/hcc/lib\libHCCD.a(atmel_mcipdc.o)
 .text.mcipdc_getphy
                0x2002be68       0x90 C:/Users/ground/Documents/GitHub/tevel2/GlobusSatProject/..//hal/hcc/lib\libHCCD.a(atmel_mcipdc.o)
 .text.mcipdc_release
                0x2002bef8       0x50 C:/Users/ground/Documents/GitHub/tevel2/GlobusSatProject/..//hal/hcc/lib\libHCCD.a(atmel_mcipdc.o)
 .text.atmel_mcipdc_initfunc
                0x2002bf48      0x160 C:/Users/ground/Documents/GitHub/tevel2/GlobusSatProject/..//hal/hcc/lib\libHCCD.a(atmel_mcipdc.o)
                0x2002bf48                atmel_mcipdc_initfunc
 .text.oal_task_get_id
                0x2002c0a8       0x18 C:/Users/ground/Documents/GitHub/tevel2/GlobusSatProject/..//hal/hcc/lib\libHCCD.a(oalp_task.o)
                0x2002c0a8                oal_task_get_id
 .text.oal_mutex_create
                0x2002c0c0       0x54 C:/Users/ground/Documents/GitHub/tevel2/GlobusSatProject/..//hal/hcc/lib\libHCCD.a(oalp_mutex.o)
                0x2002c0c0                oal_mutex_create
 .text.oal_mutex_delete
                0x2002c114       0x30 C:/Users/ground/Documents/GitHub/tevel2/GlobusSatProject/..//hal/hcc/lib\libHCCD.a(oalp_mutex.o)
                0x2002c114                oal_mutex_delete
 .text.oal_mutex_get
                0x2002c144       0x58 C:/Users/ground/Documents/GitHub/tevel2/GlobusSatProject/..//hal/hcc/lib\libHCCD.a(oalp_mutex.o)
                0x2002c144                oal_mutex_get
 .text.oal_mutex_put
                0x2002c19c       0x58 C:/Users/ground/Documents/GitHub/tevel2/GlobusSatProject/..//hal/hcc/lib\libHCCD.a(oalp_mutex.o)
                0x2002c19c                oal_mutex_put
 .text.mcipdc_hw_init
                0x2002c1f4       0xe8 C:/Users/ground/Documents/GitHub/tevel2/GlobusSatProject/..//hal/hcc/lib\libHCCD.a(atmel_mcipdc_hw.o)
                0x2002c1f4                mcipdc_hw_init
 .text.mcipdc_hw_delete
                0x2002c2dc       0x78 C:/Users/ground/Documents/GitHub/tevel2/GlobusSatProject/..//hal/hcc/lib\libHCCD.a(atmel_mcipdc_hw.o)
                0x2002c2dc                mcipdc_hw_delete
 .text.mcipdc_hw_card_plugged
                0x2002c354       0x1c C:/Users/ground/Documents/GitHub/tevel2/GlobusSatProject/..//hal/hcc/lib\libHCCD.a(atmel_mcipdc_hw.o)
                0x2002c354                mcipdc_hw_card_plugged
 .text.mcipdc_hw_card_writeprotect
                0x2002c370       0x1c C:/Users/ground/Documents/GitHub/tevel2/GlobusSatProject/..//hal/hcc/lib\libHCCD.a(atmel_mcipdc_hw.o)
                0x2002c370                mcipdc_hw_card_writeprotect
 .text.psp_getrand
                0x2002c38c      0x14c C:/Users/ground/Documents/GitHub/tevel2/GlobusSatProject/..//hal/hcc/lib\libHCCD.a(psp_rand.o)
                0x2002c38c                psp_getrand
 .text.psp_getcurrenttimedate
                0x2002c4d8       0x8c C:/Users/ground/Documents/GitHub/tevel2/GlobusSatProject/..//hal/hcc/lib\libHCCD.a(psp_rtc.o)
                0x2002c4d8                psp_getcurrenttimedate
 .text._hcc_get_buf_dsc
                0x2002c564       0x8c C:/Users/ground/Documents/GitHub/tevel2/GlobusSatProject/..//hal/hcc/lib\libHCCD.a(hcc_mem.o)
 .text._hcc_check_free_pages
                0x2002c5f0      0x18c C:/Users/ground/Documents/GitHub/tevel2/GlobusSatProject/..//hal/hcc/lib\libHCCD.a(hcc_mem.o)
 .text._hcc_mark_pages
                0x2002c77c      0x158 C:/Users/ground/Documents/GitHub/tevel2/GlobusSatProject/..//hal/hcc/lib\libHCCD.a(hcc_mem.o)
 .text._hcc_clear_lock_dsc
                0x2002c8d4       0x80 C:/Users/ground/Documents/GitHub/tevel2/GlobusSatProject/..//hal/hcc/lib\libHCCD.a(hcc_mem.o)
 .text._hcc_lock_access
                0x2002c954      0x128 C:/Users/ground/Documents/GitHub/tevel2/GlobusSatProject/..//hal/hcc/lib\libHCCD.a(hcc_mem.o)
 .text._hcc_unlock_access
                0x2002ca7c       0x30 C:/Users/ground/Documents/GitHub/tevel2/GlobusSatProject/..//hal/hcc/lib\libHCCD.a(hcc_mem.o)
 .text.hcc_mem_alloc
                0x2002caac      0x454 C:/Users/ground/Documents/GitHub/tevel2/GlobusSatProject/..//hal/hcc/lib\libHCCD.a(hcc_mem.o)
                0x2002caac                hcc_mem_alloc
 .text.hcc_mem_free
                0x2002cf00      0x178 C:/Users/ground/Documents/GitHub/tevel2/GlobusSatProject/..//hal/hcc/lib\libHCCD.a(hcc_mem.o)
                0x2002cf00                hcc_mem_free
 .text.hcc_mem_add
                0x2002d078      0x3b0 C:/Users/ground/Documents/GitHub/tevel2/GlobusSatProject/..//hal/hcc/lib\libHCCD.a(hcc_mem.o)
                0x2002d078                hcc_mem_add
 .text.hcc_mem_init
                0x2002d428      0x164 C:/Users/ground/Documents/GitHub/tevel2/GlobusSatProject/..//hal/hcc/lib\libHCCD.a(hcc_mem.o)
                0x2002d428                hcc_mem_init
 .text.hcc_mem_delete
                0x2002d58c       0x94 C:/Users/ground/Documents/GitHub/tevel2/GlobusSatProject/..//hal/hcc/lib\libHCCD.a(hcc_mem.o)
                0x2002d58c                hcc_mem_delete
 .text.hcc_mem_buf_alloc
                0x2002d620       0xe4 C:/Users/ground/Documents/GitHub/tevel2/GlobusSatProject/..//hal/hcc/lib\libHCCD.a(psp_hcc_mem.o)
                0x2002d620                hcc_mem_buf_alloc
 .text.hcc_mem_buf_free
                0x2002d704       0x6c C:/Users/ground/Documents/GitHub/tevel2/GlobusSatProject/..//hal/hcc/lib\libHCCD.a(psp_hcc_mem.o)
                0x2002d704                hcc_mem_buf_free
 .text.IsisSolarPanelv2_initialize
                0x2002d770      0x118 C:/Users/ground/Documents/GitHub/tevel2/GlobusSatProject/..//satellite-subsystems/satellite-subsystems/lib\libSatelliteSubsystemsD.a(IsisSolarPanelv2.o)
                0x2002d770                IsisSolarPanelv2_initialize
 .text.IsisSolarPanelv2_getTemperature
                0x2002d888       0xfc C:/Users/ground/Documents/GitHub/tevel2/GlobusSatProject/..//satellite-subsystems/satellite-subsystems/lib\libSatelliteSubsystemsD.a(IsisSolarPanelv2.o)
                0x2002d888                IsisSolarPanelv2_getTemperature
 .text.IsisSolarPanelv2_sleep
                0x2002d984       0xc8 C:/Users/ground/Documents/GitHub/tevel2/GlobusSatProject/..//satellite-subsystems/satellite-subsystems/lib\libSatelliteSubsystemsD.a(IsisSolarPanelv2.o)
                0x2002d984                IsisSolarPanelv2_sleep
 .text.IsisSolarPanelv2_wakeup
                0x2002da4c       0x90 C:/Users/ground/Documents/GitHub/tevel2/GlobusSatProject/..//satellite-subsystems/satellite-subsystems/lib\libSatelliteSubsystemsD.a(IsisSolarPanelv2.o)
                0x2002da4c                IsisSolarPanelv2_wakeup
 .text._Reset   0x2002dadc       0x20 C:/Users/ground/Documents/GitHub/tevel2/GlobusSatProject/..//satellite-subsystems/satellite-subsystems/lib\libSatelliteSubsystemsD.a(IsisSolarPanelv2.o)
 .text._WaitForStartup
                0x2002dafc       0xa0 C:/Users/ground/Documents/GitHub/tevel2/GlobusSatProject/..//satellite-subsystems/satellite-subsystems/lib\libSatelliteSubsystemsD.a(IsisSolarPanelv2.o)
 .text._AssignAllChannels
                0x2002db9c       0x90 C:/Users/ground/Documents/GitHub/tevel2/GlobusSatProject/..//satellite-subsystems/satellite-subsystems/lib\libSatelliteSubsystemsD.a(IsisSolarPanelv2.o)
 .text._AssignThisChannel
                0x2002dc2c       0xe8 C:/Users/ground/Documents/GitHub/tevel2/GlobusSatProject/..//satellite-subsystems/satellite-subsystems/lib\libSatelliteSubsystemsD.a(IsisSolarPanelv2.o)
 .text._InitiateConversion
                0x2002dd14       0xac C:/Users/ground/Documents/GitHub/tevel2/GlobusSatProject/..//satellite-subsystems/satellite-subsystems/lib\libSatelliteSubsystemsD.a(IsisSolarPanelv2.o)
 .text._WaitForConversionComplete
                0x2002ddc0      0x110 C:/Users/ground/Documents/GitHub/tevel2/GlobusSatProject/..//satellite-subsystems/satellite-subsystems/lib\libSatelliteSubsystemsD.a(IsisSolarPanelv2.o)
 .text._ReadResult
                0x2002ded0      0x158 C:/Users/ground/Documents/GitHub/tevel2/GlobusSatProject/..//satellite-subsystems/satellite-subsystems/lib\libSatelliteSubsystemsD.a(IsisSolarPanelv2.o)
 .text._ExtractByte
                0x2002e028       0x38 C:/Users/ground/Documents/GitHub/tevel2/GlobusSatProject/..//satellite-subsystems/satellite-subsystems/lib\libSatelliteSubsystemsD.a(IsisSolarPanelv2.o)
 .text._ExtendSign
                0x2002e060       0x6c C:/Users/ground/Documents/GitHub/tevel2/GlobusSatProject/..//satellite-subsystems/satellite-subsystems/lib\libSatelliteSubsystemsD.a(IsisSolarPanelv2.o)
 .text._PinsInit
                0x2002e0cc       0x68 C:/Users/ground/Documents/GitHub/tevel2/GlobusSatProject/..//satellite-subsystems/satellite-subsystems/lib\libSatelliteSubsystemsD.a(IsisSolarPanelv2.o)
 .text._SpiWriteRead
                0x2002e134       0x70 C:/Users/ground/Documents/GitHub/tevel2/GlobusSatProject/..//satellite-subsystems/satellite-subsystems/lib\libSatelliteSubsystemsD.a(IsisSolarPanelv2.o)
 .text.ISIS_ANTS_Init
                0x2002e1a4       0xc4 C:/Users/ground/Documents/GitHub/tevel2/GlobusSatProject/..//satellite-subsystems/satellite-subsystems/lib\libSatelliteSubsystemsD.a(isis_ants.o)
                0x2002e1a4                ISIS_ANTS_Init
 .text.isis_ants__arm
                0x2002e268       0x98 C:/Users/ground/Documents/GitHub/tevel2/GlobusSatProject/..//satellite-subsystems/satellite-subsystems/lib\libSatelliteSubsystemsD.a(isis_ants.o)
                0x2002e268                isis_ants__arm
 .text.isis_ants__cancel_deploy
                0x2002e300       0x98 C:/Users/ground/Documents/GitHub/tevel2/GlobusSatProject/..//satellite-subsystems/satellite-subsystems/lib\libSatelliteSubsystemsD.a(isis_ants.o)
                0x2002e300                isis_ants__cancel_deploy
 .text.isis_ants__disarm
                0x2002e398       0x98 C:/Users/ground/Documents/GitHub/tevel2/GlobusSatProject/..//satellite-subsystems/satellite-subsystems/lib\libSatelliteSubsystemsD.a(isis_ants.o)
                0x2002e398                isis_ants__disarm
 .text.isis_ants__get_all_telemetry
                0x2002e430       0xa8 C:/Users/ground/Documents/GitHub/tevel2/GlobusSatProject/..//satellite-subsystems/satellite-subsystems/lib\libSatelliteSubsystemsD.a(isis_ants.o)
                0x2002e430                isis_ants__get_all_telemetry
 .text.isis_ants__get_status
                0x2002e4d8       0xa8 C:/Users/ground/Documents/GitHub/tevel2/GlobusSatProject/..//satellite-subsystems/satellite-subsystems/lib\libSatelliteSubsystemsD.a(isis_ants.o)
                0x2002e4d8                isis_ants__get_status
 .text.isis_ants__get_uptime
                0x2002e580       0xa8 C:/Users/ground/Documents/GitHub/tevel2/GlobusSatProject/..//satellite-subsystems/satellite-subsystems/lib\libSatelliteSubsystemsD.a(isis_ants.o)
                0x2002e580                isis_ants__get_uptime
 .text.isis_ants__reset
                0x2002e628       0x98 C:/Users/ground/Documents/GitHub/tevel2/GlobusSatProject/..//satellite-subsystems/satellite-subsystems/lib\libSatelliteSubsystemsD.a(isis_ants.o)
                0x2002e628                isis_ants__reset
 .text._ISIS_ANTS_I2C_Send
                0x2002e6c0       0x8c C:/Users/ground/Documents/GitHub/tevel2/GlobusSatProject/..//satellite-subsystems/satellite-subsystems/lib\libSatelliteSubsystemsD.a(isis_ants.o)
 .text.ISIS_VU_E_Init
                0x2002e74c       0xe4 C:/Users/ground/Documents/GitHub/tevel2/GlobusSatProject/..//satellite-subsystems/satellite-subsystems/lib\libSatelliteSubsystemsD.a(isis_vu_e.o)
                0x2002e74c                ISIS_VU_E_Init
 .text.isis_vu_e__get_frame
                0x2002e830       0x84 C:/Users/ground/Documents/GitHub/tevel2/GlobusSatProject/..//satellite-subsystems/satellite-subsystems/lib\libSatelliteSubsystemsD.a(isis_vu_e.o)
                0x2002e830                isis_vu_e__get_frame
 .text.isis_vu_e__get_frame_variable
                0x2002e8b4      0x190 C:/Users/ground/Documents/GitHub/tevel2/GlobusSatProject/..//satellite-subsystems/satellite-subsystems/lib\libSatelliteSubsystemsD.a(isis_vu_e.o)
                0x2002e8b4                isis_vu_e__get_frame_variable
 .text.isis_vu_e__get_frame_count
                0x2002ea44       0xb8 C:/Users/ground/Documents/GitHub/tevel2/GlobusSatProject/..//satellite-subsystems/satellite-subsystems/lib\libSatelliteSubsystemsD.a(isis_vu_e.o)
                0x2002ea44                isis_vu_e__get_frame_count
 .text.isis_vu_e__get_rx_freq
                0x2002eafc       0xb8 C:/Users/ground/Documents/GitHub/tevel2/GlobusSatProject/..//satellite-subsystems/satellite-subsystems/lib\libSatelliteSubsystemsD.a(isis_vu_e.o)
                0x2002eafc                isis_vu_e__get_rx_freq
 .text.isis_vu_e__get_rx_telemetry
                0x2002ebb4       0xb8 C:/Users/ground/Documents/GitHub/tevel2/GlobusSatProject/..//satellite-subsystems/satellite-subsystems/lib\libSatelliteSubsystemsD.a(isis_vu_e.o)
                0x2002ebb4                isis_vu_e__get_rx_telemetry
 .text.isis_vu_e__get_transponder_in_freq
                0x2002ec6c       0xb8 C:/Users/ground/Documents/GitHub/tevel2/GlobusSatProject/..//satellite-subsystems/satellite-subsystems/lib\libSatelliteSubsystemsD.a(isis_vu_e.o)
                0x2002ec6c                isis_vu_e__get_transponder_in_freq
 .text.isis_vu_e__get_tx_freq
                0x2002ed24       0xb8 C:/Users/ground/Documents/GitHub/tevel2/GlobusSatProject/..//satellite-subsystems/satellite-subsystems/lib\libSatelliteSubsystemsD.a(isis_vu_e.o)
                0x2002ed24                isis_vu_e__get_tx_freq
 .text.isis_vu_e__get_tx_telemetry
                0x2002eddc       0xb8 C:/Users/ground/Documents/GitHub/tevel2/GlobusSatProject/..//satellite-subsystems/satellite-subsystems/lib\libSatelliteSubsystemsD.a(isis_vu_e.o)
                0x2002eddc                isis_vu_e__get_tx_telemetry
 .text.isis_vu_e__remove_frame
                0x2002ee94       0xa8 C:/Users/ground/Documents/GitHub/tevel2/GlobusSatProject/..//satellite-subsystems/satellite-subsystems/lib\libSatelliteSubsystemsD.a(isis_vu_e.o)
                0x2002ee94                isis_vu_e__remove_frame
 .text.isis_vu_e__reset_hw_rx
                0x2002ef3c       0xa8 C:/Users/ground/Documents/GitHub/tevel2/GlobusSatProject/..//satellite-subsystems/satellite-subsystems/lib\libSatelliteSubsystemsD.a(isis_vu_e.o)
                0x2002ef3c                isis_vu_e__reset_hw_rx
 .text.isis_vu_e__reset_hw_tx
                0x2002efe4       0xa8 C:/Users/ground/Documents/GitHub/tevel2/GlobusSatProject/..//satellite-subsystems/satellite-subsystems/lib\libSatelliteSubsystemsD.a(isis_vu_e.o)
                0x2002efe4                isis_vu_e__reset_hw_tx
 .text.isis_vu_e__rx_uptime
                0x2002f08c       0xb8 C:/Users/ground/Documents/GitHub/tevel2/GlobusSatProject/..//satellite-subsystems/satellite-subsystems/lib\libSatelliteSubsystemsD.a(isis_vu_e.o)
                0x2002f08c                isis_vu_e__rx_uptime
 .text.isis_vu_e__send_frame
                0x2002f144      0x148 C:/Users/ground/Documents/GitHub/tevel2/GlobusSatProject/..//satellite-subsystems/satellite-subsystems/lib\libSatelliteSubsystemsD.a(isis_vu_e.o)
                0x2002f144                isis_vu_e__send_frame
 .text.isis_vu_e__set_idle_state
                0x2002f28c       0xc0 C:/Users/ground/Documents/GitHub/tevel2/GlobusSatProject/..//satellite-subsystems/satellite-subsystems/lib\libSatelliteSubsystemsD.a(isis_vu_e.o)
                0x2002f28c                isis_vu_e__set_idle_state
 .text.isis_vu_e__set_rx_freq
                0x2002f34c       0xe8 C:/Users/ground/Documents/GitHub/tevel2/GlobusSatProject/..//satellite-subsystems/satellite-subsystems/lib\libSatelliteSubsystemsD.a(isis_vu_e.o)
                0x2002f34c                isis_vu_e__set_rx_freq
 .text.isis_vu_e__set_transponder_in_freq
                0x2002f434       0xe8 C:/Users/ground/Documents/GitHub/tevel2/GlobusSatProject/..//satellite-subsystems/satellite-subsystems/lib\libSatelliteSubsystemsD.a(isis_vu_e.o)
                0x2002f434                isis_vu_e__set_transponder_in_freq
 .text.isis_vu_e__set_tx_freq
                0x2002f51c       0xe8 C:/Users/ground/Documents/GitHub/tevel2/GlobusSatProject/..//satellite-subsystems/satellite-subsystems/lib\libSatelliteSubsystemsD.a(isis_vu_e.o)
                0x2002f51c                isis_vu_e__set_tx_freq
 .text.isis_vu_e__set_tx_mode
                0x2002f604       0xc0 C:/Users/ground/Documents/GitHub/tevel2/GlobusSatProject/..//satellite-subsystems/satellite-subsystems/lib\libSatelliteSubsystemsD.a(isis_vu_e.o)
                0x2002f604                isis_vu_e__set_tx_mode
 .text.isis_vu_e__state
                0x2002f6c4       0xb8 C:/Users/ground/Documents/GitHub/tevel2/GlobusSatProject/..//satellite-subsystems/satellite-subsystems/lib\libSatelliteSubsystemsD.a(isis_vu_e.o)
                0x2002f6c4                isis_vu_e__state
 .text.isis_vu_e__tx_uptime
                0x2002f77c       0xb8 C:/Users/ground/Documents/GitHub/tevel2/GlobusSatProject/..//satellite-subsystems/satellite-subsystems/lib\libSatelliteSubsystemsD.a(isis_vu_e.o)
                0x2002f77c                isis_vu_e__tx_uptime
 .text._ISIS_VU_E_I2C_Send
                0x2002f834       0x8c C:/Users/ground/Documents/GitHub/tevel2/GlobusSatProject/..//satellite-subsystems/satellite-subsystems/lib\libSatelliteSubsystemsD.a(isis_vu_e.o)
 .text.ISISMEPSV2_IVID5_PIU_Init
                0x2002f8c0       0xdc C:/Users/ground/Documents/GitHub/tevel2/GlobusSatProject/..//satellite-subsystems/satellite-subsystems/lib\libSatelliteSubsystemsD.a(isismepsv2_ivid5_piu.o)
                0x2002f8c0                ISISMEPSV2_IVID5_PIU_Init
 .text.isismepsv2_ivid5_piu__gethousekeepingeng
                0x2002f99c       0xc4 C:/Users/ground/Documents/GitHub/tevel2/GlobusSatProject/..//satellite-subsystems/satellite-subsystems/lib\libSatelliteSubsystemsD.a(isismepsv2_ivid5_piu.o)
                0x2002f99c                isismepsv2_ivid5_piu__gethousekeepingeng
 .text.isismepsv2_ivid5_piu__gethousekeepingraw
                0x2002fa60       0xc4 C:/Users/ground/Documents/GitHub/tevel2/GlobusSatProject/..//satellite-subsystems/satellite-subsystems/lib\libSatelliteSubsystemsD.a(isismepsv2_ivid5_piu.o)
                0x2002fa60                isismepsv2_ivid5_piu__gethousekeepingraw
 .text.isismepsv2_ivid5_piu__gethousekeepingrunningavg
                0x2002fb24       0xc4 C:/Users/ground/Documents/GitHub/tevel2/GlobusSatProject/..//satellite-subsystems/satellite-subsystems/lib\libSatelliteSubsystemsD.a(isismepsv2_ivid5_piu.o)
                0x2002fb24                isismepsv2_ivid5_piu__gethousekeepingrunningavg
 .text.isismepsv2_ivid5_piu__outputbuschanneloff
                0x2002fbe8       0xd8 C:/Users/ground/Documents/GitHub/tevel2/GlobusSatProject/..//satellite-subsystems/satellite-subsystems/lib\libSatelliteSubsystemsD.a(isismepsv2_ivid5_piu.o)
                0x2002fbe8                isismepsv2_ivid5_piu__outputbuschanneloff
 .text.isismepsv2_ivid5_piu__outputbuschannelon
                0x2002fcc0       0xd8 C:/Users/ground/Documents/GitHub/tevel2/GlobusSatProject/..//satellite-subsystems/satellite-subsystems/lib\libSatelliteSubsystemsD.a(isismepsv2_ivid5_piu.o)
                0x2002fcc0                isismepsv2_ivid5_piu__outputbuschannelon
 .text.isismepsv2_ivid5_piu__reset
                0x2002fd98       0xd0 C:/Users/ground/Documents/GitHub/tevel2/GlobusSatProject/..//satellite-subsystems/satellite-subsystems/lib\libSatelliteSubsystemsD.a(isismepsv2_ivid5_piu.o)
                0x2002fd98                isismepsv2_ivid5_piu__reset
 .text._ISISMEPSV2_IVID5_PIU_I2C_Send
                0x2002fe68      0x15c C:/Users/ground/Documents/GitHub/tevel2/GlobusSatProject/..//satellite-subsystems/satellite-subsystems/lib\libSatelliteSubsystemsD.a(isismepsv2_ivid5_piu.o)
 .text.xQueueGenericReset
                0x2002ffc4      0x150 C:/Users/ground/Documents/GitHub/tevel2/GlobusSatProject/..//hal/freertos/lib\libFreeRTOSD.a(queue.o)
                0x2002ffc4                xQueueGenericReset
 .text.xQueueGenericCreate
                0x20030114      0x108 C:/Users/ground/Documents/GitHub/tevel2/GlobusSatProject/..//hal/freertos/lib\libFreeRTOSD.a(queue.o)
                0x20030114                xQueueGenericCreate
 .text.xQueueCreateMutex
                0x2003021c      0x11c C:/Users/ground/Documents/GitHub/tevel2/GlobusSatProject/..//hal/freertos/lib\libFreeRTOSD.a(queue.o)
                0x2003021c                xQueueCreateMutex
 .text.xQueueGenericSend
                0x20030338      0x298 C:/Users/ground/Documents/GitHub/tevel2/GlobusSatProject/..//hal/freertos/lib\libFreeRTOSD.a(queue.o)
                0x20030338                xQueueGenericSend
 .text.xQueueGenericSendFromISR
                0x200305d0      0x1e0 C:/Users/ground/Documents/GitHub/tevel2/GlobusSatProject/..//hal/freertos/lib\libFreeRTOSD.a(queue.o)
                0x200305d0                xQueueGenericSendFromISR
 .text.xQueueGenericReceive
                0x200307b0      0x2cc C:/Users/ground/Documents/GitHub/tevel2/GlobusSatProject/..//hal/freertos/lib\libFreeRTOSD.a(queue.o)
                0x200307b0                xQueueGenericReceive
 .text.uxQueueMessagesWaiting
                0x20030a7c       0x6c C:/Users/ground/Documents/GitHub/tevel2/GlobusSatProject/..//hal/freertos/lib\libFreeRTOSD.a(queue.o)
                0x20030a7c                uxQueueMessagesWaiting
 .text.vQueueDelete
                0x20030ae8       0x78 C:/Users/ground/Documents/GitHub/tevel2/GlobusSatProject/..//hal/freertos/lib\libFreeRTOSD.a(queue.o)
                0x20030ae8                vQueueDelete
 .text.prvCopyDataToQueue
                0x20030b60      0x190 C:/Users/ground/Documents/GitHub/tevel2/GlobusSatProject/..//hal/freertos/lib\libFreeRTOSD.a(queue.o)
 .text.prvCopyDataFromQueue
                0x20030cf0       0x90 C:/Users/ground/Documents/GitHub/tevel2/GlobusSatProject/..//hal/freertos/lib\libFreeRTOSD.a(queue.o)
 .text.prvUnlockQueue
                0x20030d80      0x130 C:/Users/ground/Documents/GitHub/tevel2/GlobusSatProject/..//hal/freertos/lib\libFreeRTOSD.a(queue.o)
 .text.prvIsQueueEmpty
                0x20030eb0       0x4c C:/Users/ground/Documents/GitHub/tevel2/GlobusSatProject/..//hal/freertos/lib\libFreeRTOSD.a(queue.o)
 .text.prvIsQueueFull
                0x20030efc       0x54 C:/Users/ground/Documents/GitHub/tevel2/GlobusSatProject/..//hal/freertos/lib\libFreeRTOSD.a(queue.o)
 .text.vQueueUnregisterQueue
                0x20030f50       0x80 C:/Users/ground/Documents/GitHub/tevel2/GlobusSatProject/..//hal/freertos/lib\libFreeRTOSD.a(queue.o)
                0x20030f50                vQueueUnregisterQueue
 .text.vQueueWaitForMessageRestricted
                0x20030fd0       0x90 C:/Users/ground/Documents/GitHub/tevel2/GlobusSatProject/..//hal/freertos/lib\libFreeRTOSD.a(queue.o)
                0x20030fd0                vQueueWaitForMessageRestricted
 .text.prvNotifyQueueSetContainer
                0x20031060      0x108 C:/Users/ground/Documents/GitHub/tevel2/GlobusSatProject/..//hal/freertos/lib\libFreeRTOSD.a(queue.o)
 .text.vListInitialise
                0x20031168       0x64 C:/Users/ground/Documents/GitHub/tevel2/GlobusSatProject/..//hal/freertos/lib\libFreeRTOSD.a(list.o)
                0x20031168                vListInitialise
 .text.vListInitialiseItem
                0x200311cc       0x28 C:/Users/ground/Documents/GitHub/tevel2/GlobusSatProject/..//hal/freertos/lib\libFreeRTOSD.a(list.o)
                0x200311cc                vListInitialiseItem
 .text.vListInsertEnd
                0x200311f4       0x84 C:/Users/ground/Documents/GitHub/tevel2/GlobusSatProject/..//hal/freertos/lib\libFreeRTOSD.a(list.o)
                0x200311f4                vListInsertEnd
 .text.vListInsert
                0x20031278       0xd4 C:/Users/ground/Documents/GitHub/tevel2/GlobusSatProject/..//hal/freertos/lib\libFreeRTOSD.a(list.o)
                0x20031278                vListInsert
 .text.uxListRemove
                0x2003134c       0xa0 C:/Users/ground/Documents/GitHub/tevel2/GlobusSatProject/..//hal/freertos/lib\libFreeRTOSD.a(list.o)
                0x2003134c                uxListRemove
 .text.xTaskGenericCreate
                0x200313ec      0x2ac C:/Users/ground/Documents/GitHub/tevel2/GlobusSatProject/..//hal/freertos/lib\libFreeRTOSD.a(tasks.o)
                0x200313ec                xTaskGenericCreate
 .text.vTaskDelete
                0x20031698       0xe8 C:/Users/ground/Documents/GitHub/tevel2/GlobusSatProject/..//hal/freertos/lib\libFreeRTOSD.a(tasks.o)
                0x20031698                vTaskDelete
 .text.vTaskDelayUntil
                0x20031780      0x170 C:/Users/ground/Documents/GitHub/tevel2/GlobusSatProject/..//hal/freertos/lib\libFreeRTOSD.a(tasks.o)
                0x20031780                vTaskDelayUntil
 .text.vTaskDelay
                0x200318f0       0x80 C:/Users/ground/Documents/GitHub/tevel2/GlobusSatProject/..//hal/freertos/lib\libFreeRTOSD.a(tasks.o)
                0x200318f0                vTaskDelay
 .text.eTaskGetState
                0x20031970       0xe4 C:/Users/ground/Documents/GitHub/tevel2/GlobusSatProject/..//hal/freertos/lib\libFreeRTOSD.a(tasks.o)
                0x20031970                eTaskGetState
 .text.vTaskSuspend
                0x20031a54       0xec C:/Users/ground/Documents/GitHub/tevel2/GlobusSatProject/..//hal/freertos/lib\libFreeRTOSD.a(tasks.o)
                0x20031a54                vTaskSuspend
 .text.xTaskIsTaskSuspended
                0x20031b40       0xd8 C:/Users/ground/Documents/GitHub/tevel2/GlobusSatProject/..//hal/freertos/lib\libFreeRTOSD.a(tasks.o)
                0x20031b40                xTaskIsTaskSuspended
 .text.vTaskResume
                0x20031c18      0x12c C:/Users/ground/Documents/GitHub/tevel2/GlobusSatProject/..//hal/freertos/lib\libFreeRTOSD.a(tasks.o)
                0x20031c18                vTaskResume
 .text.vTaskStartScheduler
                0x20031d44      0x104 C:/Users/ground/Documents/GitHub/tevel2/GlobusSatProject/..//hal/freertos/lib\libFreeRTOSD.a(tasks.o)
                0x20031d44                vTaskStartScheduler
 .text.vTaskSuspendAll
                0x20031e48       0x2c C:/Users/ground/Documents/GitHub/tevel2/GlobusSatProject/..//hal/freertos/lib\libFreeRTOSD.a(tasks.o)
                0x20031e48                vTaskSuspendAll
 .text.xTaskResumeAll
                0x20031e74      0x1f4 C:/Users/ground/Documents/GitHub/tevel2/GlobusSatProject/..//hal/freertos/lib\libFreeRTOSD.a(tasks.o)
                0x20031e74                xTaskResumeAll
 .text.xTaskGetTickCount
                0x20032068       0x34 C:/Users/ground/Documents/GitHub/tevel2/GlobusSatProject/..//hal/freertos/lib\libFreeRTOSD.a(tasks.o)
                0x20032068                xTaskGetTickCount
 .text.xTaskIncrementTick
                0x2003209c      0x298 C:/Users/ground/Documents/GitHub/tevel2/GlobusSatProject/..//hal/freertos/lib\libFreeRTOSD.a(tasks.o)
                0x2003209c                xTaskIncrementTick
 .text.vTaskSwitchContext
                0x20032334      0x1a4 C:/Users/ground/Documents/GitHub/tevel2/GlobusSatProject/..//hal/freertos/lib\libFreeRTOSD.a(tasks.o)
                0x20032334                vTaskSwitchContext
 .text.vTaskPlaceOnEventList
                0x200324d8       0xcc C:/Users/ground/Documents/GitHub/tevel2/GlobusSatProject/..//hal/freertos/lib\libFreeRTOSD.a(tasks.o)
                0x200324d8                vTaskPlaceOnEventList
 .text.vTaskPlaceOnEventListRestricted
                0x200325a4       0xa4 C:/Users/ground/Documents/GitHub/tevel2/GlobusSatProject/..//hal/freertos/lib\libFreeRTOSD.a(tasks.o)
                0x200325a4                vTaskPlaceOnEventListRestricted
 .text.xTaskRemoveFromEventList
                0x20032648      0x160 C:/Users/ground/Documents/GitHub/tevel2/GlobusSatProject/..//hal/freertos/lib\libFreeRTOSD.a(tasks.o)
                0x20032648                xTaskRemoveFromEventList
 .text.vTaskSetTimeOutState
                0x200327a8       0x78 C:/Users/ground/Documents/GitHub/tevel2/GlobusSatProject/..//hal/freertos/lib\libFreeRTOSD.a(tasks.o)
                0x200327a8                vTaskSetTimeOutState
 .text.xTaskCheckForTimeOut
                0x20032820      0x158 C:/Users/ground/Documents/GitHub/tevel2/GlobusSatProject/..//hal/freertos/lib\libFreeRTOSD.a(tasks.o)
                0x20032820                xTaskCheckForTimeOut
 .text.vTaskMissedYield
                0x20032978       0x24 C:/Users/ground/Documents/GitHub/tevel2/GlobusSatProject/..//hal/freertos/lib\libFreeRTOSD.a(tasks.o)
                0x20032978                vTaskMissedYield
 .text.prvIdleTask
                0x2003299c       0x20 C:/Users/ground/Documents/GitHub/tevel2/GlobusSatProject/..//hal/freertos/lib\libFreeRTOSD.a(tasks.o)
 .text.prvInitialiseTCBVariables
                0x200329bc      0x450 C:/Users/ground/Documents/GitHub/tevel2/GlobusSatProject/..//hal/freertos/lib\libFreeRTOSD.a(tasks.o)
 .text.prvInitialiseTaskLists
                0x20032e0c       0xbc C:/Users/ground/Documents/GitHub/tevel2/GlobusSatProject/..//hal/freertos/lib\libFreeRTOSD.a(tasks.o)
 .text.prvCheckTasksWaitingTermination
                0x20032ec8       0xbc C:/Users/ground/Documents/GitHub/tevel2/GlobusSatProject/..//hal/freertos/lib\libFreeRTOSD.a(tasks.o)
 .text.prvAddCurrentTaskToDelayedList
                0x20032f84       0xb4 C:/Users/ground/Documents/GitHub/tevel2/GlobusSatProject/..//hal/freertos/lib\libFreeRTOSD.a(tasks.o)
 .text.prvAllocateTCBAndStack
                0x20033038       0xb4 C:/Users/ground/Documents/GitHub/tevel2/GlobusSatProject/..//hal/freertos/lib\libFreeRTOSD.a(tasks.o)
 .text.prvDeleteTCB
                0x200330ec       0x30 C:/Users/ground/Documents/GitHub/tevel2/GlobusSatProject/..//hal/freertos/lib\libFreeRTOSD.a(tasks.o)
 .text.xTaskGetCurrentTaskHandle
                0x2003311c       0x30 C:/Users/ground/Documents/GitHub/tevel2/GlobusSatProject/..//hal/freertos/lib\libFreeRTOSD.a(tasks.o)
                0x2003311c                xTaskGetCurrentTaskHandle
 .text.xTaskGetSchedulerState
                0x2003314c       0x68 C:/Users/ground/Documents/GitHub/tevel2/GlobusSatProject/..//hal/freertos/lib\libFreeRTOSD.a(tasks.o)
                0x2003314c                xTaskGetSchedulerState
 .text.vTaskPriorityInherit
                0x200331b4      0x148 C:/Users/ground/Documents/GitHub/tevel2/GlobusSatProject/..//hal/freertos/lib\libFreeRTOSD.a(tasks.o)
                0x200331b4                vTaskPriorityInherit
 .text.vTaskPriorityDisinherit
                0x200332fc       0xdc C:/Users/ground/Documents/GitHub/tevel2/GlobusSatProject/..//hal/freertos/lib\libFreeRTOSD.a(tasks.o)
                0x200332fc                vTaskPriorityDisinherit
 .text.xTimerCreateTimerTask
                0x200333d8       0xb0 C:/Users/ground/Documents/GitHub/tevel2/GlobusSatProject/..//hal/freertos/lib\libFreeRTOSD.a(timers.o)
                0x200333d8                xTimerCreateTimerTask
 .text.xTimerGenericCommand
                0x20033488       0xf0 C:/Users/ground/Documents/GitHub/tevel2/GlobusSatProject/..//hal/freertos/lib\libFreeRTOSD.a(timers.o)
                0x20033488                xTimerGenericCommand
 .text.prvProcessExpiredTimer
                0x20033578       0xec C:/Users/ground/Documents/GitHub/tevel2/GlobusSatProject/..//hal/freertos/lib\libFreeRTOSD.a(timers.o)
 .text.prvTimerTask
                0x20033664       0x38 C:/Users/ground/Documents/GitHub/tevel2/GlobusSatProject/..//hal/freertos/lib\libFreeRTOSD.a(timers.o)
 .text.prvProcessTimerOrBlockTask
                0x2003369c       0xb4 C:/Users/ground/Documents/GitHub/tevel2/GlobusSatProject/..//hal/freertos/lib\libFreeRTOSD.a(timers.o)
 .text.prvGetNextExpireTime
                0x20033750       0x80 C:/Users/ground/Documents/GitHub/tevel2/GlobusSatProject/..//hal/freertos/lib\libFreeRTOSD.a(timers.o)
 .text.prvSampleTimeNow
                0x200337d0       0x78 C:/Users/ground/Documents/GitHub/tevel2/GlobusSatProject/..//hal/freertos/lib\libFreeRTOSD.a(timers.o)
 .text.prvInsertTimerInActiveList
                0x20033848       0xf4 C:/Users/ground/Documents/GitHub/tevel2/GlobusSatProject/..//hal/freertos/lib\libFreeRTOSD.a(timers.o)
 .text.prvProcessReceivedCommands
                0x2003393c      0x1d0 C:/Users/ground/Documents/GitHub/tevel2/GlobusSatProject/..//hal/freertos/lib\libFreeRTOSD.a(timers.o)
 .text.prvSwitchTimerLists
                0x20033b0c      0x16c C:/Users/ground/Documents/GitHub/tevel2/GlobusSatProject/..//hal/freertos/lib\libFreeRTOSD.a(timers.o)
 .text.prvCheckForValidListAndQueue
                0x20033c78       0x7c C:/Users/ground/Documents/GitHub/tevel2/GlobusSatProject/..//hal/freertos/lib\libFreeRTOSD.a(timers.o)
 .text.vApplicationStackOverflowHook
                0x20033cf4       0x5c C:/Users/ground/Documents/GitHub/tevel2/GlobusSatProject/..//hal/freertos/lib\libFreeRTOSD.a(hooks.o)
                0x20033cf4                vApplicationStackOverflowHook
 .text.vApplicationIdleHook
                0x20033d50       0x18 C:/Users/ground/Documents/GitHub/tevel2/GlobusSatProject/..//hal/freertos/lib\libFreeRTOSD.a(hooks.o)
                0x20033d50                vApplicationIdleHook
 .text.vApplicationMallocFailedHook
                0x20033d68       0x30 C:/Users/ground/Documents/GitHub/tevel2/GlobusSatProject/..//hal/freertos/lib\libFreeRTOSD.a(hooks.o)
                0x20033d68                vApplicationMallocFailedHook
 .text.pvPortMalloc
                0x20033d98       0x28 C:/Users/ground/Documents/GitHub/tevel2/GlobusSatProject/..//hal/freertos/lib\libFreeRTOSD.a(standardMemMang.o)
                0x20033d98                pvPortMalloc
 .text.vPortFree
                0x20033dc0       0x20 C:/Users/ground/Documents/GitHub/tevel2/GlobusSatProject/..//hal/freertos/lib\libFreeRTOSD.a(standardMemMang.o)
                0x20033dc0                vPortFree
 .text._sbrk    0x20033de0       0xd0 C:/Users/ground/Documents/GitHub/tevel2/GlobusSatProject/..//hal/freertos/lib\libFreeRTOSD.a(standardMemMang.o)
                0x20033de0                _sbrk
 .text.pxPortInitialiseStack
                0x20033eb0      0x218 C:/Users/ground/Documents/GitHub/tevel2/GlobusSatProject/..//hal/freertos/lib\libFreeRTOSD.a(port.o)
                0x20033eb0                pxPortInitialiseStack
 .text.xPortStartScheduler
                0x200340c8       0x1c C:/Users/ground/Documents/GitHub/tevel2/GlobusSatProject/..//hal/freertos/lib\libFreeRTOSD.a(port.o)
                0x200340c8                xPortStartScheduler
 .text.prvSetupTimerInterrupt
                0x200340e4       0x54 C:/Users/ground/Documents/GitHub/tevel2/GlobusSatProject/..//hal/freertos/lib\libFreeRTOSD.a(port.o)
 .text.vPortISRStartFirstTask
                0x20034138       0x64 C:/Users/ground/Documents/GitHub/tevel2/GlobusSatProject/..//hal/freertos/lib\libFreeRTOSD.a(port.o)
 .text.vPortEnterCritical
                0x2003419c       0x40 C:/Users/ground/Documents/GitHub/tevel2/GlobusSatProject/..//hal/freertos/lib\libFreeRTOSD.a(port.o)
                0x2003419c                vPortEnterCritical
 .text.vPortExitCritical
                0x200341dc       0x60 C:/Users/ground/Documents/GitHub/tevel2/GlobusSatProject/..//hal/freertos/lib\libFreeRTOSD.a(port.o)
                0x200341dc                vPortExitCritical
 .text._read    0x2003423c       0xa4 C:/Users/ground/Documents/GitHub/tevel2/GlobusSatProject/..//hal/at91/lib\libAt91D.a(syscalls.o)
                0x2003423c                _read
 .text._write   0x200342e0       0xd4 C:/Users/ground/Documents/GitHub/tevel2/GlobusSatProject/..//hal/at91/lib\libAt91D.a(syscalls.o)
                0x200342e0                _write
 .text._lseek   0x200343b4       0x2c C:/Users/ground/Documents/GitHub/tevel2/GlobusSatProject/..//hal/at91/lib\libAt91D.a(syscalls.o)
                0x200343b4                _lseek
 .text._close   0x200343e0       0x24 C:/Users/ground/Documents/GitHub/tevel2/GlobusSatProject/..//hal/at91/lib\libAt91D.a(syscalls.o)
                0x200343e0                _close
 .text._fstat   0x20034404       0x28 C:/Users/ground/Documents/GitHub/tevel2/GlobusSatProject/..//hal/at91/lib\libAt91D.a(syscalls.o)
                0x20034404                _fstat
 .text._isatty  0x2003442c       0x38 C:/Users/ground/Documents/GitHub/tevel2/GlobusSatProject/..//hal/at91/lib\libAt91D.a(syscalls.o)
                0x2003442c                _isatty
 .text.exit     0x20034464       0x18 C:/Users/ground/Documents/GitHub/tevel2/GlobusSatProject/..//hal/at91/lib\libAt91D.a(syscalls.o)
                0x20034464                exit
 .text._exit    0x2003447c       0x28 C:/Users/ground/Documents/GitHub/tevel2/GlobusSatProject/..//hal/at91/lib\libAt91D.a(syscalls.o)
                0x2003447c                _exit
 .text.AIC_ConfigureIT
                0x200344a4       0x74 C:/Users/ground/Documents/GitHub/tevel2/GlobusSatProject/..//hal/at91/lib\libAt91D.a(aic.o)
                0x200344a4                AIC_ConfigureIT
 .text.AIC_EnableIT
                0x20034518       0x34 C:/Users/ground/Documents/GitHub/tevel2/GlobusSatProject/..//hal/at91/lib\libAt91D.a(aic.o)
                0x20034518                AIC_EnableIT
 .text.AIC_DisableIT
                0x2003454c       0x34 C:/Users/ground/Documents/GitHub/tevel2/GlobusSatProject/..//hal/at91/lib\libAt91D.a(aic.o)
                0x2003454c                AIC_DisableIT
 .text.CP15_Enable_I_Cache
                0x20034580       0x6c C:/Users/ground/Documents/GitHub/tevel2/GlobusSatProject/..//hal/at91/lib\libAt91D.a(cp15.o)
                0x20034580                CP15_Enable_I_Cache
 .text.CP15_Disable_I_Cache
                0x200345ec       0x94 C:/Users/ground/Documents/GitHub/tevel2/GlobusSatProject/..//hal/at91/lib\libAt91D.a(cp15.o)
                0x200345ec                CP15_Disable_I_Cache
 .text.CP15_DisableMMU
                0x20034680       0xa0 C:/Users/ground/Documents/GitHub/tevel2/GlobusSatProject/..//hal/at91/lib\libAt91D.a(cp15.o)
                0x20034680                CP15_DisableMMU
 .text.CP15_Disable_D_Cache
                0x20034720       0x94 C:/Users/ground/Documents/GitHub/tevel2/GlobusSatProject/..//hal/at91/lib\libAt91D.a(cp15.o)
                0x20034720                CP15_Disable_D_Cache
 .text.CP15_Disable_AlignmentFault
                0x200347b4       0x94 C:/Users/ground/Documents/GitHub/tevel2/GlobusSatProject/..//hal/at91/lib\libAt91D.a(cp15.o)
                0x200347b4                CP15_Disable_AlignmentFault
 .text.DBGU_Configure
                0x20034848       0x84 C:/Users/ground/Documents/GitHub/tevel2/GlobusSatProject/..//hal/at91/lib\libAt91D.a(dbgu.o)
                0x20034848                DBGU_Configure
 .text.DBGU_PutChar
                0x200348cc       0x60 C:/Users/ground/Documents/GitHub/tevel2/GlobusSatProject/..//hal/at91/lib\libAt91D.a(dbgu.o)
                0x200348cc                DBGU_PutChar
 .text.DBGU_GetChar
                0x2003492c       0x40 C:/Users/ground/Documents/GitHub/tevel2/GlobusSatProject/..//hal/at91/lib\libAt91D.a(dbgu.o)
                0x2003492c                DBGU_GetChar
 .text.PIO_SetPeripheralA
                0x2003496c       0x74 C:/Users/ground/Documents/GitHub/tevel2/GlobusSatProject/..//hal/at91/lib\libAt91D.a(pio.o)
 .text.PIO_SetPeripheralB
                0x200349e0       0x74 C:/Users/ground/Documents/GitHub/tevel2/GlobusSatProject/..//hal/at91/lib\libAt91D.a(pio.o)
 .text.PIO_SetInput
                0x20034a54       0x9c C:/Users/ground/Documents/GitHub/tevel2/GlobusSatProject/..//hal/at91/lib\libAt91D.a(pio.o)
 .text.PIO_SetOutput
                0x20034af0       0xc4 C:/Users/ground/Documents/GitHub/tevel2/GlobusSatProject/..//hal/at91/lib\libAt91D.a(pio.o)
 .text.PIO_Configure
                0x20034bb4      0x1ec C:/Users/ground/Documents/GitHub/tevel2/GlobusSatProject/..//hal/at91/lib\libAt91D.a(pio.o)
                0x20034bb4                PIO_Configure
 .text.PIO_Set  0x20034da0       0x3c C:/Users/ground/Documents/GitHub/tevel2/GlobusSatProject/..//hal/at91/lib\libAt91D.a(pio.o)
                0x20034da0                PIO_Set
 .text.PIO_Clear
                0x20034ddc       0x3c C:/Users/ground/Documents/GitHub/tevel2/GlobusSatProject/..//hal/at91/lib\libAt91D.a(pio.o)
                0x20034ddc                PIO_Clear
 .text.PIO_Get  0x20034e18       0x9c C:/Users/ground/Documents/GitHub/tevel2/GlobusSatProject/..//hal/at91/lib\libAt91D.a(pio.o)
                0x20034e18                PIO_Get
 .text.PIT_Init
                0x20034eb4       0x68 C:/Users/ground/Documents/GitHub/tevel2/GlobusSatProject/..//hal/at91/lib\libAt91D.a(pit.o)
                0x20034eb4                PIT_Init
 .text.PIT_Enable
                0x20034f1c       0x2c C:/Users/ground/Documents/GitHub/tevel2/GlobusSatProject/..//hal/at91/lib\libAt91D.a(pit.o)
                0x20034f1c                PIT_Enable
 .text.PIT_EnableIT
                0x20034f48       0x2c C:/Users/ground/Documents/GitHub/tevel2/GlobusSatProject/..//hal/at91/lib\libAt91D.a(pit.o)
                0x20034f48                PIT_EnableIT
 .text.PMC_EnablePeripheral
                0x20034f74       0xc4 C:/Users/ground/Documents/GitHub/tevel2/GlobusSatProject/..//hal/at91/lib\libAt91D.a(pmc.o)
                0x20034f74                PMC_EnablePeripheral
 .text.PMC_DisablePeripheral
                0x20035038       0xc4 C:/Users/ground/Documents/GitHub/tevel2/GlobusSatProject/..//hal/at91/lib\libAt91D.a(pmc.o)
                0x20035038                PMC_DisablePeripheral
 .text.PMC_IsPeriphEnabled
                0x200350fc       0x3c C:/Users/ground/Documents/GitHub/tevel2/GlobusSatProject/..//hal/at91/lib\libAt91D.a(pmc.o)
                0x200350fc                PMC_IsPeriphEnabled
 .text.SPI_Enable
                0x20035138       0x28 C:/Users/ground/Documents/GitHub/tevel2/GlobusSatProject/..//hal/at91/lib\libAt91D.a(spi_at91.o)
                0x20035138                SPI_Enable
 .text.SPI_Disable
                0x20035160       0x28 C:/Users/ground/Documents/GitHub/tevel2/GlobusSatProject/..//hal/at91/lib\libAt91D.a(spi_at91.o)
                0x20035160                SPI_Disable
 .text.SPI_Configure
                0x20035188       0x6c C:/Users/ground/Documents/GitHub/tevel2/GlobusSatProject/..//hal/at91/lib\libAt91D.a(spi_at91.o)
                0x20035188                SPI_Configure
 .text.SPI_ConfigureNPCS
                0x200351f4       0x38 C:/Users/ground/Documents/GitHub/tevel2/GlobusSatProject/..//hal/at91/lib\libAt91D.a(spi_at91.o)
                0x200351f4                SPI_ConfigureNPCS
 .text.TWI_ConfigureMaster
                0x2003522c      0x2c0 C:/Users/ground/Documents/GitHub/tevel2/GlobusSatProject/..//hal/at91/lib\libAt91D.a(twi_at91.o)
                0x2003522c                TWI_ConfigureMaster
 .text.TWI_GetMaskedStatus
                0x200354ec       0x78 C:/Users/ground/Documents/GitHub/tevel2/GlobusSatProject/..//hal/at91/lib\libAt91D.a(twi_at91.o)
                0x200354ec                TWI_GetMaskedStatus
 .text.disableCaches
                0x20035564       0x18 C:/Users/ground/Documents/GitHub/tevel2/GlobusSatProject/..//hal/at91/lib\libAt91D.a(ExitHandler.o)
 .text.restart  0x2003557c       0x28 C:/Users/ground/Documents/GitHub/tevel2/GlobusSatProject/..//hal/at91/lib\libAt91D.a(ExitHandler.o)
                0x2003557c                restart
 .text.print_hex
                0x200355a4       0xa0 C:/Users/ground/Documents/GitHub/tevel2/GlobusSatProject/..//hal/at91/lib\libAt91D.a(ExitHandler.o)
 .text.print_stack_trace
                0x20035644      0x1b4 C:/Users/ground/Documents/GitHub/tevel2/GlobusSatProject/..//hal/at91/lib\libAt91D.a(ExitHandler.o)
 .text.handleAbort
                0x200357f8      0x890 C:/Users/ground/Documents/GitHub/tevel2/GlobusSatProject/..//hal/at91/lib\libAt91D.a(ExitHandler.o)
                0x200357f8                handleAbort
 .text.defaultSpuriousHandler
                0x20036088       0x38 C:/Users/ground/Documents/GitHub/tevel2/GlobusSatProject/..//hal/at91/lib\libAt91D.a(board_lowlevel.o)
                0x20036088                defaultSpuriousHandler
 .text.defaultFiqHandler
                0x200360c0       0x38 C:/Users/ground/Documents/GitHub/tevel2/GlobusSatProject/..//hal/at91/lib\libAt91D.a(board_lowlevel.o)
                0x200360c0                defaultFiqHandler
 .text.defaultIrqHandler
                0x200360f8       0x38 C:/Users/ground/Documents/GitHub/tevel2/GlobusSatProject/..//hal/at91/lib\libAt91D.a(board_lowlevel.o)
                0x200360f8                defaultIrqHandler
 .text.LowLevelInit
                0x20036130       0xf4 C:/Users/ground/Documents/GitHub/tevel2/GlobusSatProject/..//hal/at91/lib\libAt91D.a(board_lowlevel.o)
                0x20036130                LowLevelInit
 .text.BOARD_RemapRam
                0x20036224       0x24 C:/Users/ground/Documents/GitHub/tevel2/GlobusSatProject/..//hal/at91/lib\libAt91D.a(board_memories.o)
                0x20036224                BOARD_RemapRam
 .text.__errno  0x20036248       0x10 c:/isis/application/toolchain/bin/../lib/gcc/arm-none-eabi/4.7.4/../../../../arm-none-eabi/lib\libc_s.a(lib_a-errno.o)
                0x20036248                __errno
 .text._fflush_r
                0x20036258      0x244 c:/isis/application/toolchain/bin/../lib/gcc/arm-none-eabi/4.7.4/../../../../arm-none-eabi/lib\libc_s.a(lib_a-fflush.o)
                0x20036258                _fflush_r
 .text.fflush   0x2003649c       0x40 c:/isis/application/toolchain/bin/../lib/gcc/arm-none-eabi/4.7.4/../../../../arm-none-eabi/lib\libc_s.a(lib_a-fflush.o)
                0x2003649c                fflush
 .text._cleanup_r
                0x200364dc       0x5c c:/isis/application/toolchain/bin/../lib/gcc/arm-none-eabi/4.7.4/../../../../arm-none-eabi/lib\libc_s.a(lib_a-findfp.o)
                0x200364dc                _cleanup_r
 .text.std.isra.0
                0x20036538       0x7c c:/isis/application/toolchain/bin/../lib/gcc/arm-none-eabi/4.7.4/../../../../arm-none-eabi/lib\libc_s.a(lib_a-findfp.o)
 .text.__sfmoreglue
                0x200365b4       0x44 c:/isis/application/toolchain/bin/../lib/gcc/arm-none-eabi/4.7.4/../../../../arm-none-eabi/lib\libc_s.a(lib_a-findfp.o)
                0x200365b4                __sfmoreglue
 .text.__sinit  0x200365f8       0x90 c:/isis/application/toolchain/bin/../lib/gcc/arm-none-eabi/4.7.4/../../../../arm-none-eabi/lib\libc_s.a(lib_a-findfp.o)
                0x200365f8                __sinit
 .text.__sfp    0x20036688       0xdc c:/isis/application/toolchain/bin/../lib/gcc/arm-none-eabi/4.7.4/../../../../arm-none-eabi/lib\libc_s.a(lib_a-findfp.o)
                0x20036688                __sfp
 .text.__sfp_lock_acquire
                0x20036764        0x4 c:/isis/application/toolchain/bin/../lib/gcc/arm-none-eabi/4.7.4/../../../../arm-none-eabi/lib\libc_s.a(lib_a-findfp.o)
                0x20036764                __sfp_lock_acquire
 .text.__sfp_lock_release
                0x20036768        0x4 c:/isis/application/toolchain/bin/../lib/gcc/arm-none-eabi/4.7.4/../../../../arm-none-eabi/lib\libc_s.a(lib_a-findfp.o)
                0x20036768                __sfp_lock_release
 .text._fwalk_reent
                0x2003676c       0x7c c:/isis/application/toolchain/bin/../lib/gcc/arm-none-eabi/4.7.4/../../../../arm-none-eabi/lib\libc_s.a(lib_a-fwalk.o)
                0x2003676c                _fwalk_reent
 .text.memcmp   0x200367e8       0x3c c:/isis/application/toolchain/bin/../lib/gcc/arm-none-eabi/4.7.4/../../../../arm-none-eabi/lib\libc_s.a(lib_a-memcmp.o)
                0x200367e8                memcmp
 .text.printf   0x20036824       0x50 c:/isis/application/toolchain/bin/../lib/gcc/arm-none-eabi/4.7.4/../../../../arm-none-eabi/lib\libc_s.a(lib_a-printf.o)
                0x20036824                iprintf
                0x20036824                printf
 .text.__sread  0x20036874       0x34 c:/isis/application/toolchain/bin/../lib/gcc/arm-none-eabi/4.7.4/../../../../arm-none-eabi/lib\libc_s.a(lib_a-stdio.o)
                0x20036874                __sread
 .text.__swrite
                0x200368a8       0x54 c:/isis/application/toolchain/bin/../lib/gcc/arm-none-eabi/4.7.4/../../../../arm-none-eabi/lib\libc_s.a(lib_a-stdio.o)
                0x200368a8                __swrite
 .text.__sseek  0x200368fc       0x34 c:/isis/application/toolchain/bin/../lib/gcc/arm-none-eabi/4.7.4/../../../../arm-none-eabi/lib\libc_s.a(lib_a-stdio.o)
                0x200368fc                __sseek
 .text.__sclose
                0x20036930       0x14 c:/isis/application/toolchain/bin/../lib/gcc/arm-none-eabi/4.7.4/../../../../arm-none-eabi/lib\libc_s.a(lib_a-stdio.o)
                0x20036930                __sclose
 .text.strcpy   0x20036944       0x18 c:/isis/application/toolchain/bin/../lib/gcc/arm-none-eabi/4.7.4/../../../../arm-none-eabi/lib\libc_s.a(lib_a-strcpy.o)
                0x20036944                strcpy
 .text.write    0x2003695c       0x30 c:/isis/application/toolchain/bin/../lib/gcc/arm-none-eabi/4.7.4/../../../../arm-none-eabi/lib\libc_s.a(lib_a-syswrite.o)
                0x2003695c                write
 .text.__sfputc_r
                0x2003698c       0x50 c:/isis/application/toolchain/bin/../lib/gcc/arm-none-eabi/4.7.4/../../../../arm-none-eabi/lib\libc_s.a(lib_a-vfprintf.o)
                0x2003698c                __sfputc_r
 .text._vfprintf_r
                0x200369dc      0x360 c:/isis/application/toolchain/bin/../lib/gcc/arm-none-eabi/4.7.4/../../../../arm-none-eabi/lib\libc_s.a(lib_a-vfprintf.o)
                0x200369dc                _vfprintf_r
                0x200369dc                _vfiprintf_r
 .text._vsprintf_r
                0x20036d3c       0x4c c:/isis/application/toolchain/bin/../lib/gcc/arm-none-eabi/4.7.4/../../../../arm-none-eabi/lib\libc_s.a(lib_a-vsprintf.o)
                0x20036d3c                _vsprintf_r
                0x20036d3c                _vsiprintf_r
 .text.vsprintf
                0x20036d88       0x2c c:/isis/application/toolchain/bin/../lib/gcc/arm-none-eabi/4.7.4/../../../../arm-none-eabi/lib\libc_s.a(lib_a-vsprintf.o)
                0x20036d88                vsiprintf
                0x20036d88                vsprintf
 .text.__swbuf_r
                0x20036db4      0x138 c:/isis/application/toolchain/bin/../lib/gcc/arm-none-eabi/4.7.4/../../../../arm-none-eabi/lib\libc_s.a(lib_a-wbuf.o)
                0x20036db4                __swbuf_r
 .text._write_r
                0x20036eec       0x44 c:/isis/application/toolchain/bin/../lib/gcc/arm-none-eabi/4.7.4/../../../../arm-none-eabi/lib\libc_s.a(lib_a-writer.o)
                0x20036eec                _write_r
 .text.__swsetup_r
                0x20036f30      0x154 c:/isis/application/toolchain/bin/../lib/gcc/arm-none-eabi/4.7.4/../../../../arm-none-eabi/lib\libc_s.a(lib_a-wsetup.o)
                0x20036f30                __swsetup_r
 .text._close_r
                0x20037084       0x3c c:/isis/application/toolchain/bin/../lib/gcc/arm-none-eabi/4.7.4/../../../../arm-none-eabi/lib\libc_s.a(lib_a-closer.o)
                0x20037084                _close_r
 .text._lseek_r
                0x200370c0       0x44 c:/isis/application/toolchain/bin/../lib/gcc/arm-none-eabi/4.7.4/../../../../arm-none-eabi/lib\libc_s.a(lib_a-lseekr.o)
                0x200370c0                _lseek_r
 .text.__smakebuf_r
                0x20037104       0xf8 c:/isis/application/toolchain/bin/../lib/gcc/arm-none-eabi/4.7.4/../../../../arm-none-eabi/lib\libc_s.a(lib_a-makebuf.o)
                0x20037104                __smakebuf_r
 .text._read_r  0x200371fc       0x44 c:/isis/application/toolchain/bin/../lib/gcc/arm-none-eabi/4.7.4/../../../../arm-none-eabi/lib\libc_s.a(lib_a-readr.o)
                0x200371fc                _read_r
 .text._fstat_r
                0x20037240       0x40 c:/isis/application/toolchain/bin/../lib/gcc/arm-none-eabi/4.7.4/../../../../arm-none-eabi/lib\libc_s.a(lib_a-fstatr.o)
                0x20037240                _fstat_r
 .text._isatty_r
                0x20037280       0x3c c:/isis/application/toolchain/bin/../lib/gcc/arm-none-eabi/4.7.4/../../../../arm-none-eabi/lib\libc_s.a(lib_a-isattyr.o)
                0x20037280                _isatty_r
 *fill*         0x200372bc        0x4 00
 .text._isatty_r.stub
                0x200372c0       0x10 linker stubs
 *(.rodata)
 .rodata        0x200372d0       0x8c ./src/SubSystemModules/PowerManagment/EPS.o
 .rodata        0x2003735c       0x24 ./src/SubSystemModules/PowerManagment/EPSOperationModes.o
 .rodata        0x20037380       0x98 ./src/SubSystemModules/Payload/payload_drivers.o
 .rodata        0x20037418        0x4 ./src/SubSystemModules/Maintenance/Log.o
 .rodata        0x2003741c       0x98 ./src/SubSystemModules/Maintenance/Maintenance.o
 .rodata        0x200374b4      0x204 ./src/SubSystemModules/Housekepping/Dump.o
 .rodata        0x200376b8      0x250 ./src/SubSystemModules/Housekepping/TelemetryCollector.o
 .rodata        0x20037908       0x1c ./src/SubSystemModules/Communication/SubsystemCommands/EPS_Commands.o
 .rodata        0x20037924      0x428 ./src/SubSystemModules/Communication/SubsystemCommands/Maintanence_Commands.o
 .rodata        0x20037d4c       0x54 ./src/SubSystemModules/Communication/AckHandler.o
 .rodata        0x20037da0       0x70 ./src/SubSystemModules/Communication/ActUponCommand.o
 .rodata        0x20037e10      0x15c ./src/SubSystemModules/Communication/Beacon.o
 .rodata        0x20037f6c       0x80 ./src/SubSystemModules/Communication/SatCommandHandler.o
 .rodata        0x20037fec       0xa8 ./src/SubSystemModules/Communication/SatDataTx.o
 .rodata        0x20038094      0x49c ./src/SubSystemModules/Communication/TRXVU.o
 .rodata        0x20038530      0x300 ./src/SubSystemModules/Communication/Transponder.o
 .rodata        0x20038830      0x634 ./src/InitSystem.o
 .rodata        0x20038e64       0xd0 ./src/TLM_management.o
 .rodata        0x20038f34       0x18 ./src/main.o
 .rodata        0x20038f4c      0x384 C:/Users/ground/Documents/GitHub/tevel2/GlobusSatProject/..//hal/hal/lib\libHALD.a(SPI.o)
 .rodata        0x200392d0      0x12c C:/Users/ground/Documents/GitHub/tevel2/GlobusSatProject/..//hal/hal/lib\libHALD.a(I2C.o)
 .rodata        0x200393fc       0xc4 C:/Users/ground/Documents/GitHub/tevel2/GlobusSatProject/..//hal/hal/lib\libHALD.a(Time.o)
 .rodata        0x200394c0        0xc C:/Users/ground/Documents/GitHub/tevel2/GlobusSatProject/..//hal/hal/lib\libHALD.a(WatchDogTimerNoOS.o)
 .rodata        0x200394cc       0x14 C:/Users/ground/Documents/GitHub/tevel2/GlobusSatProject/..//hal/hal/lib\libHALD.a(WatchDogTimerOS.o)
 .rodata        0x200394e0       0x30 C:/Users/ground/Documents/GitHub/tevel2/GlobusSatProject/..//hal/hal/lib\libHALD.a(LED.o)
 .rodata        0x20039510       0x20 C:/Users/ground/Documents/GitHub/tevel2/GlobusSatProject/..//hal/hcc/lib\libHCCD.a(fat.o)
 .rodata        0x20039530       0x6c C:/Users/ground/Documents/GitHub/tevel2/GlobusSatProject/..//hal/hcc/lib\libHCCD.a(fat_common.o)
 .rodata        0x2003959c       0x60 C:/Users/ground/Documents/GitHub/tevel2/GlobusSatProject/..//hal/hcc/lib\libHCCD.a(safefat.o)
 .rodata        0x200395fc       0x30 C:/Users/ground/Documents/GitHub/tevel2/GlobusSatProject/..//hal/hcc/lib\libHCCD.a(atmel_mcipdc.o)
 .rodata        0x2003962c       0x54 C:/Users/ground/Documents/GitHub/tevel2/GlobusSatProject/..//hal/hcc/lib\libHCCD.a(atmel_mcipdc_hw.o)
 .rodata        0x20039680       0x50 C:/Users/ground/Documents/GitHub/tevel2/GlobusSatProject/..//satellite-subsystems/satellite-subsystems/lib\libSatelliteSubsystemsD.a(IsisSolarPanelv2.o)
 .rodata        0x200396d0       0x28 C:/Users/ground/Documents/GitHub/tevel2/GlobusSatProject/..//satellite-subsystems/satellite-subsystems/lib\libSatelliteSubsystemsD.a(isismepsv2_ivid5_piu.o)
 .rodata        0x200396f8       0x40 C:/Users/ground/Documents/GitHub/tevel2/GlobusSatProject/..//hal/freertos/lib\libFreeRTOSD.a(queue.o)
 .rodata        0x20039738       0x4c C:/Users/ground/Documents/GitHub/tevel2/GlobusSatProject/..//hal/freertos/lib\libFreeRTOSD.a(tasks.o)
 .rodata        0x20039784       0x48 C:/Users/ground/Documents/GitHub/tevel2/GlobusSatProject/..//hal/freertos/lib\libFreeRTOSD.a(timers.o)
 .rodata        0x200397cc       0x90 C:/Users/ground/Documents/GitHub/tevel2/GlobusSatProject/..//hal/freertos/lib\libFreeRTOSD.a(hooks.o)
 .rodata        0x2003985c       0x1c C:/Users/ground/Documents/GitHub/tevel2/GlobusSatProject/..//hal/at91/lib\libAt91D.a(syscalls.o)
 .rodata        0x20039878      0x320 C:/Users/ground/Documents/GitHub/tevel2/GlobusSatProject/..//hal/at91/lib\libAt91D.a(cp15.o)
 .rodata        0x20039b98      0x1a0 C:/Users/ground/Documents/GitHub/tevel2/GlobusSatProject/..//hal/at91/lib\libAt91D.a(pmc.o)
 .rodata        0x20039d38       0xd0 C:/Users/ground/Documents/GitHub/tevel2/GlobusSatProject/..//hal/at91/lib\libAt91D.a(twi_at91.o)
 .rodata        0x20039e08      0x504 C:/Users/ground/Documents/GitHub/tevel2/GlobusSatProject/..//hal/at91/lib\libAt91D.a(ExitHandler.o)
 .rodata        0x2003a30c      0x100 C:/Users/ground/Documents/GitHub/tevel2/GlobusSatProject/..//hal/at91/lib\libAt91D.a(board_lowlevel.o)
 *(.rodata*)
 .rodata.str1.1
                0x2003a40c       0x10 c:/isis/application/toolchain/bin/../lib/gcc/arm-none-eabi/4.7.4/../../../../arm-none-eabi/lib\libc_s.a(lib_a-vfprintf_float.o)
 .rodata.str1.1
                0x2003a41c       0x22 c:/isis/application/toolchain/bin/../lib/gcc/arm-none-eabi/4.7.4/../../../../arm-none-eabi/lib\libc_s.a(lib_a-vfprintf_i.o)
 .rodata.str1.1
                0x2003a43e        0x5 c:/isis/application/toolchain/bin/../lib/gcc/arm-none-eabi/4.7.4/../../../../arm-none-eabi/lib\libc_s.a(lib_a-vfscanf_float.o)
 .rodata.str1.1
                0x2003a443        0xf c:/isis/application/toolchain/bin/../lib/gcc/arm-none-eabi/4.7.4/../../../../arm-none-eabi/lib\libc_s.a(lib_a-dtoa.o)
 .rodata.str1.1
                0x2003a452        0xa c:/isis/application/toolchain/bin/../lib/gcc/arm-none-eabi/4.7.4/../../../../arm-none-eabi/lib\libc_s.a(lib_a-locale.o)
                                  0xb (size before relaxing)
 *fill*         0x2003a45c        0x4 00
 .rodata.__mprec_tens
                0x2003a460       0xc8 c:/isis/application/toolchain/bin/../lib/gcc/arm-none-eabi/4.7.4/../../../../arm-none-eabi/lib\libc_s.a(lib_a-mprec.o)
                0x2003a460                __mprec_tens
 .rodata.p05.5252
                0x2003a528        0xc c:/isis/application/toolchain/bin/../lib/gcc/arm-none-eabi/4.7.4/../../../../arm-none-eabi/lib\libc_s.a(lib_a-mprec.o)
 *fill*         0x2003a534        0x4 00
 .rodata.__mprec_bigtens
                0x2003a538       0x28 c:/isis/application/toolchain/bin/../lib/gcc/arm-none-eabi/4.7.4/../../../../arm-none-eabi/lib\libc_s.a(lib_a-mprec.o)
                0x2003a538                __mprec_bigtens
 .rodata.str1.1
                0x00000000        0xa c:/isis/application/toolchain/bin/../lib/gcc/arm-none-eabi/4.7.4/../../../../arm-none-eabi/lib\libc_s.a(lib_a-strtod.o)
                                  0xc (size before relaxing)
 .rodata.tinytens
                0x2003a560       0x28 c:/isis/application/toolchain/bin/../lib/gcc/arm-none-eabi/4.7.4/../../../../arm-none-eabi/lib\libc_s.a(lib_a-strtod.o)
 .rodata.str1.1
                0x2003a588       0x11 c:/isis/application/toolchain/bin/../lib/gcc/arm-none-eabi/4.7.4/../../../../arm-none-eabi/lib\libc_s.a(lib_a-svfprintf.o)
 .rodata._ctype_
                0x2003a599      0x101 c:/isis/application/toolchain/bin/../lib/gcc/arm-none-eabi/4.7.4/../../../../arm-none-eabi/lib\libc_s.a(lib_a-ctype_.o)
                0x2003a599                _ctype_
 .rodata.str1.1
                0x2003a69a        0xb c:/isis/application/toolchain/bin/../lib/gcc/arm-none-eabi/4.7.4/../../../../arm-none-eabi/lib\libc_s.a(lib_a-gdtoa-gethex.o)
                                 0x19 (size before relaxing)
 .rodata.str1.1
                0x00000000        0x2 c:/isis/application/toolchain/bin/../lib/gcc/arm-none-eabi/4.7.4/../../../../arm-none-eabi/lib\libc_s.a(lib_a-impure.o)
 *fill*         0x2003a6a5        0x3 00
 .rodata._global_impure_ptr
                0x2003a6a8        0x4 c:/isis/application/toolchain/bin/../lib/gcc/arm-none-eabi/4.7.4/../../../../arm-none-eabi/lib\libc_s.a(lib_a-impure.o)
                0x2003a6a8                _global_impure_ptr
 .rodata.__sf_fake_stdin
                0x2003a6ac       0x20 c:/isis/application/toolchain/bin/../lib/gcc/arm-none-eabi/4.7.4/../../../../arm-none-eabi/lib\libc_s.a(lib_a-findfp.o)
                0x2003a6ac                __sf_fake_stdin
 .rodata.__sf_fake_stdout
                0x2003a6cc       0x20 c:/isis/application/toolchain/bin/../lib/gcc/arm-none-eabi/4.7.4/../../../../arm-none-eabi/lib\libc_s.a(lib_a-findfp.o)
                0x2003a6cc                __sf_fake_stdout
 .rodata.__sf_fake_stderr
                0x2003a6ec       0x20 c:/isis/application/toolchain/bin/../lib/gcc/arm-none-eabi/4.7.4/../../../../arm-none-eabi/lib\libc_s.a(lib_a-findfp.o)
                0x2003a6ec                __sf_fake_stderr
 .rodata.str1.1
                0x00000000       0x11 c:/isis/application/toolchain/bin/../lib/gcc/arm-none-eabi/4.7.4/../../../../arm-none-eabi/lib\libc_s.a(lib_a-vfprintf.o)
 *(.rodata.*)
 *(.glue_7)
 .glue_7        0x00000000        0x0 linker stubs
 *(.glue_7t)
 .glue_7t       0x00000000        0x0 linker stubs
 *(.vfp11_veneer)
 .vfp11_veneer  0x00000000        0x0 linker stubs
 *(.v4_bx)
 .v4_bx         0x00000000        0x0 linker stubs
 *(.data)
 .data          0x2003a70c       0x10 ./src/SubSystemModules/PowerManagment/EPS.o
                0x2003a70c                alpha
                0x2003a710                eps_threshold_voltages
 .data          0x2003a71c        0x1 ./src/SubSystemModules/Maintenance/Log.o
                0x2003a71c                g_currLogLevel
 *fill*         0x2003a71d        0x3 00
 .data          0x2003a720        0x4 ./src/SubSystemModules/Communication/Beacon.o
                0x2003a720                id
 .data          0x2003a724        0x8 ./src/SubSystemModules/Communication/TRXVU.o
                0x2003a724                g_idle_period
                0x2003a728                g_ants_dep_period
 .data          0x2003a72c        0xc C:/Users/ground/Documents/GitHub/tevel2/GlobusSatProject/..//hal/hal/lib\libHALD.a(SPI.o)
 .data          0x2003a738        0x8 C:/Users/ground/Documents/GitHub/tevel2/GlobusSatProject/..//hal/hal/lib\libHALD.a(I2C.o)
 .data          0x2003a740       0x10 C:/Users/ground/Documents/GitHub/tevel2/GlobusSatProject/..//hal/hal/lib\libHALD.a(FRAM.o)
 .data          0x2003a750        0x4 C:/Users/ground/Documents/GitHub/tevel2/GlobusSatProject/..//hal/hal/lib\libHALD.a(Time.o)
 .data          0x2003a754       0x10 C:/Users/ground/Documents/GitHub/tevel2/GlobusSatProject/..//hal/hal/lib\libHALD.a(RTC.o)
 .data          0x2003a764       0x20 C:/Users/ground/Documents/GitHub/tevel2/GlobusSatProject/..//hal/hcc/lib\libHCCD.a(safefat.o)
                0x2003a764                s_subdir
 .data          0x2003a784        0x4 C:/Users/ground/Documents/GitHub/tevel2/GlobusSatProject/..//hal/hcc/lib\libHCCD.a(psp_rand.o)
 .data          0x2003a788       0x30 C:/Users/ground/Documents/GitHub/tevel2/GlobusSatProject/..//satellite-subsystems/satellite-subsystems/lib\libSatelliteSubsystemsD.a(IsisSolarPanelv2.o)
 .data          0x2003a7b8        0x4 C:/Users/ground/Documents/GitHub/tevel2/GlobusSatProject/..//hal/freertos/lib\libFreeRTOSD.a(tasks.o)
 .data          0x2003a7bc        0x4 C:/Users/ground/Documents/GitHub/tevel2/GlobusSatProject/..//hal/freertos/lib\libFreeRTOSD.a(port.o)
                0x2003a7bc                ulCriticalNesting
 *(.data.*)
 .data.lconv    0x2003a7c0       0x38 c:/isis/application/toolchain/bin/../lib/gcc/arm-none-eabi/4.7.4/../../../../arm-none-eabi/lib\libc_s.a(lib_a-locale.o)
 .data.fpi.5208
                0x2003a7f8       0x14 c:/isis/application/toolchain/bin/../lib/gcc/arm-none-eabi/4.7.4/../../../../arm-none-eabi/lib\libc_s.a(lib_a-strtod.o)
 .data.fpinan.5244
                0x2003a80c       0x14 c:/isis/application/toolchain/bin/../lib/gcc/arm-none-eabi/4.7.4/../../../../arm-none-eabi/lib\libc_s.a(lib_a-strtod.o)
 .data.__ctype_ptr__
                0x2003a820        0x4 c:/isis/application/toolchain/bin/../lib/gcc/arm-none-eabi/4.7.4/../../../../arm-none-eabi/lib\libc_s.a(lib_a-ctype_.o)
                0x2003a820                __ctype_ptr__
 .data.impure_data
                0x2003a824       0x64 c:/isis/application/toolchain/bin/../lib/gcc/arm-none-eabi/4.7.4/../../../../arm-none-eabi/lib\libc_s.a(lib_a-impure.o)
 .data._impure_ptr
                0x2003a888        0x4 c:/isis/application/toolchain/bin/../lib/gcc/arm-none-eabi/4.7.4/../../../../arm-none-eabi/lib\libc_s.a(lib_a-impure.o)
                0x2003a888                _impure_ptr
 *(.dyn)
 *(.iplt)
 .iplt          0x00000000        0x0 c:/isis/application/toolchain/bin/../lib/gcc/arm-none-eabi/4.7.4/../../../../arm-none-eabi/lib\libc_s.a(lib_a-vfprintf_float.o)
 *(.igot)
 *(.igot.plt)
 .igot.plt      0x00000000        0x0 c:/isis/application/toolchain/bin/../lib/gcc/arm-none-eabi/4.7.4/../../../../arm-none-eabi/lib\libc_s.a(lib_a-vfprintf_float.o)
 *(.rel.dyn)
 *(.rel.iplt)
 .rel.iplt      0x00000000        0x0 c:/isis/application/toolchain/bin/../lib/gcc/arm-none-eabi/4.7.4/../../../../arm-none-eabi/lib\libc_s.a(lib_a-vfprintf_float.o)
                0x2003a88c                . = ALIGN (0x4)
                0x2003a88c                _efixed = .

.ARM.exidx      0x2003a88c        0x0
 *(.ARM.exidx)
                0x2003a88c                _eexidx = .

.ARM.extab      0x2003a88c        0x0
 *(.ARM.extab)
                0x2003a88c                _eextab = .

.prerelocate    0x00200000        0x0 load address 0x2003a88c
                0x00200000                . = ALIGN (0x4)
                0x00200000                _sprerelocate = .
                0x00200000                . = ALIGN (0x4)
                0x00200000                _eprerelocate = .

.postrelocate   0x00200000     0x1d88 load address 0x2003a88c
                0x00200000                . = ALIGN (0x4)
                0x00200000                _spostrelocate = .
 *(.vectors)
 .vectors       0x00200000       0xd4 C:/Users/ground/Documents/GitHub/tevel2/GlobusSatProject/..//hal/at91/lib\libAt91D.a(board_cstartup.o)
 *(.sramfunc)
 .sramfunc      0x002000d4      0xac8 C:/Users/ground/Documents/GitHub/tevel2/GlobusSatProject/..//hal/hal/lib\libHALD.a(SPI.o)
 .sramfunc      0x00200b9c      0xe54 C:/Users/ground/Documents/GitHub/tevel2/GlobusSatProject/..//hal/hal/lib\libHALD.a(I2C.o)
                0x00201454                ISR_I2Cmaster
                0x00201804                taskI2Cregulator
 .sramfunc      0x002019f0       0x98 C:/Users/ground/Documents/GitHub/tevel2/GlobusSatProject/..//hal/hal/lib\libHALD.a(WatchDogTimerNoOS.o)
                0x002019f0                WDT_kickEveryNcalls
                0x00201a38                WDT_forceKick
 .sramfunc      0x00201a88       0x50 C:/Users/ground/Documents/GitHub/tevel2/GlobusSatProject/..//hal/hal/lib\libHALD.a(WatchDogTimerOS.o)
 .sramfunc      0x00201ad8      0x18c C:/Users/ground/Documents/GitHub/tevel2/GlobusSatProject/..//hal/freertos/lib\libFreeRTOSD.a(port.o)
                0x00201ad8                vPortTickISR
                0x00201bb0                vPortYieldProcessor
 .sramfunc      0x00201c64       0x50 C:/Users/ground/Documents/GitHub/tevel2/GlobusSatProject/..//hal/at91/lib\libAt91D.a(ExitHandler.o)
                0x00201c64                gracefulReset
 *fill*         0x00201cb4        0x4 00
 .sramfunc.stub
                0x00201cb8       0xd0 linker stubs
 *(.ramfunc)
                0x00201d88                . = ALIGN (0x4)
                0x00201d88                _epostrelocate = .

.sramdata       0x00300000        0xc load address 0x2003c614
                0x00300000                . = ALIGN (0x4)
                0x00300000                _ssramdata = .
 *(.sramdata)
 .sramdata      0x00300000        0x4 C:/Users/ground/Documents/GitHub/tevel2/GlobusSatProject/..//hal/hal/lib\libHALD.a(WatchDogTimerNoOS.o)
 .sramdata      0x00300004        0x8 C:/Users/ground/Documents/GitHub/tevel2/GlobusSatProject/..//hal/hal/lib\libHALD.a(WatchDogTimerOS.o)
                0x0030000c                . = ALIGN (0x4)
                0x0030000c                _esramdata = .

.srambss        0x0030000c        0x0
                0x0030000c                . = ALIGN (0x4)
                0x0030000c                _ssrambss = .
 *(.srambss)
                0x0030000c                . = ALIGN (0x4)
                0x0030000c                _esrambss = .

.bss            0x2003a88c   0x2c3398
                0x2003a88c                _szero = .
 *(.bss)
 .bss           0x2003a88c        0x2 ./src/SubSystemModules/PowerManagment/EPS.o
                0x2003a88c                prev_filtered_voltage
 *fill*         0x2003a88e        0x2 00
 .bss           0x2003a890       0x10 ./src/SubSystemModules/PowerManagment/EPSOperationModes.o
                0x2003a890                state_transition_time
                0x2003a894                next_state_transition_time
                0x2003a898                state
                0x2003a899                next_state
                0x2003a89c                g_low_volt_flag
 .bss           0x2003a8a0        0xc ./src/SubSystemModules/Maintenance/Log.o
                0x2003a8a0                index_
                0x2003a8a4                realErrorSize
                0x2003a8a8                hasError
 .bss           0x2003a8ac       0x14 ./src/SubSystemModules/Housekepping/Dump.o
                0x2003a8ac                xDumpQueue
                0x2003a8b0                xDumpLock
                0x2003a8b4                xDumpHandle
                0x2003a8b8                data_to_send_sz
                0x2003a8bc                data_to_send_dump_type
 .bss           0x2003a8c0      0x170 ./src/SubSystemModules/Housekepping/TelemetryCollector.o
                0x2003a8c0                tlm_save_periods
                0x2003a8dc                tlm_last_save_time
                0x2003a8f8                wod_beacon
                0x2003a9dc                hk_eps_eng_for_wod
 .bss           0x2003aa30        0x8 ./src/SubSystemModules/Communication/Beacon.o
                0x2003aa30                g_prev_beacon_time
                0x2003aa34                g_beacon_interval_time
 .bss           0x2003aa38        0xc ./src/SubSystemModules/Communication/SatDataTx.o
                0x2003aa38                g_mute_flag
                0x2003aa3c                g_mute_end_time
                0x2003aa40                xIsTransmitting
 .bss           0x2003aa44       0x10 ./src/SubSystemModules/Communication/TRXVU.o
                0x2003aa44                g_idle_flag
                0x2003aa48                g_idle_start_time
                0x2003aa4c                g_antOpen
                0x2003aa50                g_ants_last_dep_time
 .bss           0x2003aa54        0x8 ./src/SubSystemModules/Communication/Transponder.o
 .bss           0x2003aa5c       0x58 C:/Users/ground/Documents/GitHub/tevel2/GlobusSatProject/..//hal/hal/lib\libHALD.a(SPI.o)
 .bss           0x2003aab4       0x54 C:/Users/ground/Documents/GitHub/tevel2/GlobusSatProject/..//hal/hal/lib\libHALD.a(I2C.o)
                0x2003aabc                RescheduleFlag
 .bss           0x2003ab08      0x214 C:/Users/ground/Documents/GitHub/tevel2/GlobusSatProject/..//hal/hal/lib\libHALD.a(FRAM.o)
 .bss           0x2003ad1c       0x20 C:/Users/ground/Documents/GitHub/tevel2/GlobusSatProject/..//hal/hal/lib\libHALD.a(Time.o)
 .bss           0x2003ad3c        0x8 C:/Users/ground/Documents/GitHub/tevel2/GlobusSatProject/..//hal/hal/lib\libHALD.a(WatchDogTimerOS.o)
 .bss           0x2003ad44       0x10 C:/Users/ground/Documents/GitHub/tevel2/GlobusSatProject/..//hal/hal/lib\libHALD.a(LED.o)
 .bss           0x2003ad54    0x44780 C:/Users/ground/Documents/GitHub/tevel2/GlobusSatProject/..//hal/hcc/lib\libHCCD.a(fat_common.o)
                0x2007f4d0                p_filesystem
 .bss           0x2007f4d4       0x60 C:/Users/ground/Documents/GitHub/tevel2/GlobusSatProject/..//hal/hcc/lib\libHCCD.a(atmel_mcipdc.o)
                0x2007f530                mmcsd_dma_buf
 .bss           0x2007f534       0x90 C:/Users/ground/Documents/GitHub/tevel2/GlobusSatProject/..//hal/hcc/lib\libHCCD.a(hcc_mem.o)
 .bss           0x2007f5c4     0x4024 C:/Users/ground/Documents/GitHub/tevel2/GlobusSatProject/..//hal/hcc/lib\libHCCD.a(psp_hcc_mem.o)
 .bss           0x200835e8        0x1 C:/Users/ground/Documents/GitHub/tevel2/GlobusSatProject/..//satellite-subsystems/satellite-subsystems/lib\libSatelliteSubsystemsD.a(IsisSolarPanelv2.o)
 *fill*         0x200835e9        0x3 00
 .bss           0x200835ec        0x8 C:/Users/ground/Documents/GitHub/tevel2/GlobusSatProject/..//satellite-subsystems/satellite-subsystems/lib\libSatelliteSubsystemsD.a(isis_ants.o)
 .bss           0x200835f4        0x8 C:/Users/ground/Documents/GitHub/tevel2/GlobusSatProject/..//satellite-subsystems/satellite-subsystems/lib\libSatelliteSubsystemsD.a(isis_vu_e.o)
 .bss           0x200835fc        0xc C:/Users/ground/Documents/GitHub/tevel2/GlobusSatProject/..//satellite-subsystems/satellite-subsystems/lib\libSatelliteSubsystemsD.a(isismepsv2_ivid5_piu.o)
 .bss           0x20083608       0xfc C:/Users/ground/Documents/GitHub/tevel2/GlobusSatProject/..//hal/freertos/lib\libFreeRTOSD.a(tasks.o)
                0x20083608                pxCurrentTCB
 .bss           0x20083704       0x38 C:/Users/ground/Documents/GitHub/tevel2/GlobusSatProject/..//hal/freertos/lib\libFreeRTOSD.a(timers.o)
 .bss           0x2008373c        0x8 C:/Users/ground/Documents/GitHub/tevel2/GlobusSatProject/..//hal/freertos/lib\libFreeRTOSD.a(standardMemMang.o)
 .bss           0x20083744        0x8 C:/Users/ground/Documents/GitHub/tevel2/GlobusSatProject/..//hal/freertos/lib\libFreeRTOSD.a(port.o)
 *(.bss.*)
 .bss.__malloc_free_list
                0x2008374c        0x4 c:/isis/application/toolchain/bin/../lib/gcc/arm-none-eabi/4.7.4/../../../../arm-none-eabi/lib\libc_s.a(lib_a-mallocr.o)
                0x2008374c                __malloc_free_list
 *(COMMON)
 COMMON         0x20083750      0x100 c:/isis/application/toolchain/bin/../lib/gcc/arm-none-eabi/4.7.4/../../../../arm-none-eabi/lib\libc_s.a(lib_a-gdtoa-gethex.o)
                0x20083750                __hexdig
 COMMON         0x20083850        0x4 c:/isis/application/toolchain/bin/../lib/gcc/arm-none-eabi/4.7.4/../../../../arm-none-eabi/lib\libc_s.a(lib_a-reent.o)
                0x20083850                errno
 COMMON         0x20083854        0x1 ./src/SubSystemModules/PowerManagment/EPS.o
                0x20083854                subsystem
 *fill*         0x20083855        0x3 00
 COMMON         0x20083858      0x344 ./src/SubSystemModules/Maintenance/Log.o
                0x20083858                logBuffer
                0x20083afc                lastErrorMsg
                0x20083b4c                logMsg
 COMMON         0x20083b9c   0x180868 ./src/SubSystemModules/Housekepping/Dump.o
                0x20083b9c                dmp_pckt
                0x20083bac                data_to_send
                0x2010d0f0                allocked_read_elements
 COMMON         0x20204404       0xf5 ./src/SubSystemModules/Communication/TRXVU.o
                0x20204404                cmd
 *fill*         0x202044f9        0x3 00
 COMMON         0x202044fc    0xf74dd ./src/TLM_management.o
                0x202044fc                allocked_write_element
                0x202045e0                allocked_read_element
                0x202fb8f4                xFileOpenHandler
                0x202fb8f8                allocked_delete_element
 *fill*         0x202fb9d9        0x3 00
 COMMON         0x202fb9dc     0x2148 C:/Users/ground/Documents/GitHub/tevel2/GlobusSatProject/..//hal/hcc/lib\libHCCD.a(fat_common.o)
                0x202fb9dc                g_fatmutex
                0x202fb9e0                g_multi
                0x202fdb20                f_format_progress
 COMMON         0x202fdb24      0x100 C:/Users/ground/Documents/GitHub/tevel2/GlobusSatProject/..//hal/freertos/lib\libFreeRTOSD.a(queue.o)
                0x202fdb24                xQueueRegistry
 *(COMMON.*)
                0x202fdc24                . = ALIGN (0x4)
                0x202fdc24                _ezero = .
                0x202fdc24                _sheap_ = .
                0x21f00000                _eheap_ = 0x21f00000
                0x21fffc00                _sstack = 0x21fffc00
                0x202fdc24                end = .
OUTPUT(GlobusSatProject.elf elf32-littlearm)

.ARM.attributes
                0x00000000       0x30
 .ARM.attributes
                0x00000000       0x30 c:/isis/application/toolchain/bin/../lib/gcc/arm-none-eabi/4.7.4/../../../../arm-none-eabi/lib\libc_s.a(lib_a-vfprintf_float.o)
 .ARM.attributes
                0x00000030       0x30 c:/isis/application/toolchain/bin/../lib/gcc/arm-none-eabi/4.7.4/../../../../arm-none-eabi/lib\libc_s.a(lib_a-vfprintf_i.o)
 .ARM.attributes
                0x00000060       0x30 c:/isis/application/toolchain/bin/../lib/gcc/arm-none-eabi/4.7.4/../../../../arm-none-eabi/lib\libc_s.a(lib_a-vfscanf_float.o)
 .ARM.attributes
                0x00000090       0x30 c:/isis/application/toolchain/bin/../lib/gcc/arm-none-eabi/4.7.4/../../../../arm-none-eabi/lib\libc_s.a(lib_a-dtoa.o)
 .ARM.attributes
                0x000000c0       0x30 c:/isis/application/toolchain/bin/../lib/gcc/arm-none-eabi/4.7.4/../../../../arm-none-eabi/lib\libc_s.a(lib_a-locale.o)
 .ARM.attributes
                0x000000f0       0x30 c:/isis/application/toolchain/bin/../lib/gcc/arm-none-eabi/4.7.4/../../../../arm-none-eabi/lib\libc_s.a(lib_a-malloc.o)
 .ARM.attributes
                0x00000120       0x30 c:/isis/application/toolchain/bin/../lib/gcc/arm-none-eabi/4.7.4/../../../../arm-none-eabi/lib\libc_s.a(lib_a-mallocr.o)
 .ARM.attributes
                0x00000150       0x30 c:/isis/application/toolchain/bin/../lib/gcc/arm-none-eabi/4.7.4/../../../../arm-none-eabi/lib\libc_s.a(lib_a-memcpy.o)
 .ARM.attributes
                0x00000180       0x30 c:/isis/application/toolchain/bin/../lib/gcc/arm-none-eabi/4.7.4/../../../../arm-none-eabi/lib\libc_s.a(lib_a-mprec.o)
 .ARM.attributes
                0x000001b0       0x30 c:/isis/application/toolchain/bin/../lib/gcc/arm-none-eabi/4.7.4/../../../../arm-none-eabi/lib\libc_s.a(lib_a-s_fpclassify.o)
 .ARM.attributes
                0x000001e0       0x30 c:/isis/application/toolchain/bin/../lib/gcc/arm-none-eabi/4.7.4/../../../../arm-none-eabi/lib\libc_s.a(lib_a-sbrkr.o)
 .ARM.attributes
                0x00000210       0x30 c:/isis/application/toolchain/bin/../lib/gcc/arm-none-eabi/4.7.4/../../../../arm-none-eabi/lib\libc_s.a(lib_a-sf_nan.o)
 .ARM.attributes
                0x00000240       0x30 c:/isis/application/toolchain/bin/../lib/gcc/arm-none-eabi/4.7.4/../../../../arm-none-eabi/lib\libc_s.a(lib_a-sprintf.o)
 .ARM.attributes
                0x00000270       0x30 c:/isis/application/toolchain/bin/../lib/gcc/arm-none-eabi/4.7.4/../../../../arm-none-eabi/lib\libc_s.a(lib_a-strcmp.o)
 .ARM.attributes
                0x000002a0       0x30 c:/isis/application/toolchain/bin/../lib/gcc/arm-none-eabi/4.7.4/../../../../arm-none-eabi/lib\libc_s.a(lib_a-strlen.o)
 .ARM.attributes
                0x000002d0       0x30 c:/isis/application/toolchain/bin/../lib/gcc/arm-none-eabi/4.7.4/../../../../arm-none-eabi/lib\libc_s.a(lib_a-strtod.o)
 .ARM.attributes
                0x00000300       0x30 c:/isis/application/toolchain/bin/../lib/gcc/arm-none-eabi/4.7.4/../../../../arm-none-eabi/lib\libc_s.a(lib_a-strtol.o)
 .ARM.attributes
                0x00000330       0x30 c:/isis/application/toolchain/bin/../lib/gcc/arm-none-eabi/4.7.4/../../../../arm-none-eabi/lib\libc_s.a(lib_a-svfprintf.o)
 .ARM.attributes
                0x00000360       0x30 c:/isis/application/toolchain/bin/../lib/gcc/arm-none-eabi/4.7.4/../../../../arm-none-eabi/lib\libc_s.a(lib_a-callocr.o)
 .ARM.attributes
                0x00000390       0x30 c:/isis/application/toolchain/bin/../lib/gcc/arm-none-eabi/4.7.4/../../../../arm-none-eabi/lib\libc_s.a(lib_a-ctype_.o)
 .ARM.attributes
                0x000003c0       0x30 c:/isis/application/toolchain/bin/../lib/gcc/arm-none-eabi/4.7.4/../../../../arm-none-eabi/lib\libc_s.a(lib_a-freer.o)
 .ARM.attributes
                0x000003f0       0x30 c:/isis/application/toolchain/bin/../lib/gcc/arm-none-eabi/4.7.4/../../../../arm-none-eabi/lib\libc_s.a(lib_a-gdtoa-gethex.o)
 .ARM.attributes
                0x00000420       0x30 c:/isis/application/toolchain/bin/../lib/gcc/arm-none-eabi/4.7.4/../../../../arm-none-eabi/lib\libc_s.a(lib_a-gdtoa-hexnan.o)
 .ARM.attributes
                0x00000450       0x30 c:/isis/application/toolchain/bin/../lib/gcc/arm-none-eabi/4.7.4/../../../../arm-none-eabi/lib\libc_s.a(lib_a-impure.o)
 .ARM.attributes
                0x00000480       0x30 c:/isis/application/toolchain/bin/../lib/gcc/arm-none-eabi/4.7.4/../../../../arm-none-eabi/lib\libc_s.a(lib_a-memchr.o)
 .ARM.attributes
                0x000004b0       0x30 c:/isis/application/toolchain/bin/../lib/gcc/arm-none-eabi/4.7.4/../../../../arm-none-eabi/lib\libc_s.a(lib_a-memset.o)
 .ARM.attributes
                0x000004e0       0x30 c:/isis/application/toolchain/bin/../lib/gcc/arm-none-eabi/4.7.4/../../../../arm-none-eabi/lib\libc_s.a(lib_a-reallocr.o)
 .ARM.attributes
                0x00000510       0x30 c:/isis/application/toolchain/bin/../lib/gcc/arm-none-eabi/4.7.4/../../../../arm-none-eabi/lib\libc_s.a(lib_a-reent.o)
 .ARM.attributes
                0x00000540       0x30 c:/isis/application/toolchain/bin/../lib/gcc/arm-none-eabi/4.7.4/../../../../arm-none-eabi/lib\libc_s.a(lib_a-strncmp.o)
 .ARM.attributes
                0x00000570       0x30 c:/isis/application/toolchain/bin/../lib/gcc/arm-none-eabi/4.7.4/../../../../arm-none-eabi/lib\libc_s.a(lib_a-msizer.o)
 .ARM.attributes
                0x000005a0       0x32 ./src/SubSystemModules/PowerManagment/EPS.o
 .ARM.attributes
                0x000005d2       0x32 ./src/SubSystemModules/PowerManagment/EPSOperationModes.o
 .ARM.attributes
                0x00000604       0x32 ./src/SubSystemModules/Payload/payload_drivers.o
 .ARM.attributes
                0x00000636       0x32 ./src/SubSystemModules/Maintenance/Log.o
 .ARM.attributes
                0x00000668       0x32 ./src/SubSystemModules/Maintenance/Maintenance.o
 .ARM.attributes
                0x0000069a       0x32 ./src/SubSystemModules/Housekepping/Dump.o
 .ARM.attributes
                0x000006cc       0x32 ./src/SubSystemModules/Housekepping/TelemetryCollector.o
 .ARM.attributes
                0x000006fe       0x32 ./src/SubSystemModules/Communication/SubsystemCommands/EPS_Commands.o
 .ARM.attributes
                0x00000730       0x32 ./src/SubSystemModules/Communication/SubsystemCommands/FS_Commands.o
 .ARM.attributes
                0x00000762       0x32 ./src/SubSystemModules/Communication/SubsystemCommands/Maintanence_Commands.o
 .ARM.attributes
                0x00000794       0x32 ./src/SubSystemModules/Communication/SubsystemCommands/TRXVU_Commands.o
 .ARM.attributes
                0x000007c6       0x32 ./src/SubSystemModules/Communication/AckHandler.o
 .ARM.attributes
                0x000007f8       0x32 ./src/SubSystemModules/Communication/ActUponCommand.o
 .ARM.attributes
                0x0000082a       0x32 ./src/SubSystemModules/Communication/Beacon.o
 .ARM.attributes
                0x0000085c       0x32 ./src/SubSystemModules/Communication/CommandDictionary.o
 .ARM.attributes
                0x0000088e       0x32 ./src/SubSystemModules/Communication/SatCommandHandler.o
 .ARM.attributes
                0x000008c0       0x32 ./src/SubSystemModules/Communication/SatDataTx.o
 .ARM.attributes
                0x000008f2       0x32 ./src/SubSystemModules/Communication/TRXVU.o
 .ARM.attributes
                0x00000924       0x32 ./src/SubSystemModules/Communication/Transponder.o
 .ARM.attributes
                0x00000956       0x32 ./src/InitSystem.o
 .ARM.attributes
                0x00000988       0x32 ./src/TLM_management.o
 .ARM.attributes
                0x000009ba       0x32 ./src/main.o
 .ARM.attributes
                0x000009ec       0x32 C:/Users/ground/Documents/GitHub/tevel2/GlobusSatProject/..//hal/hal/lib\libHALD.a(SPI.o)
 .ARM.attributes
                0x00000a1e       0x32 C:/Users/ground/Documents/GitHub/tevel2/GlobusSatProject/..//hal/hal/lib\libHALD.a(I2C.o)
 .ARM.attributes
                0x00000a50       0x32 C:/Users/ground/Documents/GitHub/tevel2/GlobusSatProject/..//hal/hal/lib\libHALD.a(FRAM.o)
 .ARM.attributes
                0x00000a82       0x32 C:/Users/ground/Documents/GitHub/tevel2/GlobusSatProject/..//hal/hal/lib\libHALD.a(Time.o)
 .ARM.attributes
                0x00000ab4       0x32 C:/Users/ground/Documents/GitHub/tevel2/GlobusSatProject/..//hal/hal/lib\libHALD.a(WatchDogTimerNoOS.o)
 .ARM.attributes
                0x00000ae6       0x32 C:/Users/ground/Documents/GitHub/tevel2/GlobusSatProject/..//hal/hal/lib\libHALD.a(RTT.o)
 .ARM.attributes
                0x00000b18       0x32 C:/Users/ground/Documents/GitHub/tevel2/GlobusSatProject/..//hal/hal/lib\libHALD.a(RTC.o)
 .ARM.attributes
                0x00000b4a       0x32 C:/Users/ground/Documents/GitHub/tevel2/GlobusSatProject/..//hal/hal/lib\libHALD.a(WatchDogTimerOS.o)
 .ARM.attributes
                0x00000b7c       0x32 C:/Users/ground/Documents/GitHub/tevel2/GlobusSatProject/..//hal/hal/lib\libHALD.a(LED.o)
 .ARM.attributes
                0x00000bae       0x32 C:/Users/ground/Documents/GitHub/tevel2/GlobusSatProject/..//hal/hcc/lib\libHCCD.a(fat_m.o)
 .ARM.attributes
                0x00000be0       0x32 C:/Users/ground/Documents/GitHub/tevel2/GlobusSatProject/..//hal/hcc/lib\libHCCD.a(fat.o)
 .ARM.attributes
                0x00000c12       0x32 C:/Users/ground/Documents/GitHub/tevel2/GlobusSatProject/..//hal/hcc/lib\libHCCD.a(fat_common.o)
 .ARM.attributes
                0x00000c44       0x32 C:/Users/ground/Documents/GitHub/tevel2/GlobusSatProject/..//hal/hcc/lib\libHCCD.a(safefat.o)
 .ARM.attributes
                0x00000c76       0x32 C:/Users/ground/Documents/GitHub/tevel2/GlobusSatProject/..//hal/hcc/lib\libHCCD.a(atmel_mcipdc.o)
 .ARM.attributes
                0x00000ca8       0x32 C:/Users/ground/Documents/GitHub/tevel2/GlobusSatProject/..//hal/hcc/lib\libHCCD.a(oalp_task.o)
 .ARM.attributes
                0x00000cda       0x32 C:/Users/ground/Documents/GitHub/tevel2/GlobusSatProject/..//hal/hcc/lib\libHCCD.a(oalp_mutex.o)
 .ARM.attributes
                0x00000d0c       0x32 C:/Users/ground/Documents/GitHub/tevel2/GlobusSatProject/..//hal/hcc/lib\libHCCD.a(atmel_mcipdc_hw.o)
 .ARM.attributes
                0x00000d3e       0x32 C:/Users/ground/Documents/GitHub/tevel2/GlobusSatProject/..//hal/hcc/lib\libHCCD.a(psp_rand.o)
 .ARM.attributes
                0x00000d70       0x32 C:/Users/ground/Documents/GitHub/tevel2/GlobusSatProject/..//hal/hcc/lib\libHCCD.a(psp_rtc.o)
 .ARM.attributes
                0x00000da2       0x32 C:/Users/ground/Documents/GitHub/tevel2/GlobusSatProject/..//hal/hcc/lib\libHCCD.a(hcc_mem.o)
 .ARM.attributes
                0x00000dd4       0x32 C:/Users/ground/Documents/GitHub/tevel2/GlobusSatProject/..//hal/hcc/lib\libHCCD.a(psp_hcc_mem.o)
 .ARM.attributes
                0x00000e06       0x32 C:/Users/ground/Documents/GitHub/tevel2/GlobusSatProject/..//satellite-subsystems/satellite-subsystems/lib\libSatelliteSubsystemsD.a(IsisSolarPanelv2.o)
 .ARM.attributes
                0x00000e38       0x32 C:/Users/ground/Documents/GitHub/tevel2/GlobusSatProject/..//satellite-subsystems/satellite-subsystems/lib\libSatelliteSubsystemsD.a(isis_ants.o)
 .ARM.attributes
                0x00000e6a       0x32 C:/Users/ground/Documents/GitHub/tevel2/GlobusSatProject/..//satellite-subsystems/satellite-subsystems/lib\libSatelliteSubsystemsD.a(isis_vu_e.o)
 .ARM.attributes
                0x00000e9c       0x32 C:/Users/ground/Documents/GitHub/tevel2/GlobusSatProject/..//satellite-subsystems/satellite-subsystems/lib\libSatelliteSubsystemsD.a(isismepsv2_ivid5_piu.o)
 .ARM.attributes
                0x00000ece       0x32 C:/Users/ground/Documents/GitHub/tevel2/GlobusSatProject/..//hal/freertos/lib\libFreeRTOSD.a(queue.o)
 .ARM.attributes
                0x00000f00       0x32 C:/Users/ground/Documents/GitHub/tevel2/GlobusSatProject/..//hal/freertos/lib\libFreeRTOSD.a(list.o)
 .ARM.attributes
                0x00000f32       0x32 C:/Users/ground/Documents/GitHub/tevel2/GlobusSatProject/..//hal/freertos/lib\libFreeRTOSD.a(tasks.o)
 .ARM.attributes
                0x00000f64       0x32 C:/Users/ground/Documents/GitHub/tevel2/GlobusSatProject/..//hal/freertos/lib\libFreeRTOSD.a(timers.o)
 .ARM.attributes
                0x00000f96       0x32 C:/Users/ground/Documents/GitHub/tevel2/GlobusSatProject/..//hal/freertos/lib\libFreeRTOSD.a(hooks.o)
 .ARM.attributes
                0x00000fc8       0x32 C:/Users/ground/Documents/GitHub/tevel2/GlobusSatProject/..//hal/freertos/lib\libFreeRTOSD.a(standardMemMang.o)
 .ARM.attributes
                0x00000ffa       0x32 C:/Users/ground/Documents/GitHub/tevel2/GlobusSatProject/..//hal/freertos/lib\libFreeRTOSD.a(port.o)
 .ARM.attributes
                0x0000102c       0x32 C:/Users/ground/Documents/GitHub/tevel2/GlobusSatProject/..//hal/at91/lib\libAt91D.a(syscalls.o)
 .ARM.attributes
                0x0000105e       0x32 C:/Users/ground/Documents/GitHub/tevel2/GlobusSatProject/..//hal/at91/lib\libAt91D.a(aic.o)
 .ARM.attributes
                0x00001090       0x32 C:/Users/ground/Documents/GitHub/tevel2/GlobusSatProject/..//hal/at91/lib\libAt91D.a(cp15.o)
 .ARM.attributes
                0x000010c2       0x32 C:/Users/ground/Documents/GitHub/tevel2/GlobusSatProject/..//hal/at91/lib\libAt91D.a(dbgu.o)
 .ARM.attributes
                0x000010f4       0x32 C:/Users/ground/Documents/GitHub/tevel2/GlobusSatProject/..//hal/at91/lib\libAt91D.a(pio.o)
 .ARM.attributes
                0x00001126       0x32 C:/Users/ground/Documents/GitHub/tevel2/GlobusSatProject/..//hal/at91/lib\libAt91D.a(pit.o)
 .ARM.attributes
                0x00001158       0x32 C:/Users/ground/Documents/GitHub/tevel2/GlobusSatProject/..//hal/at91/lib\libAt91D.a(pmc.o)
 .ARM.attributes
                0x0000118a       0x32 C:/Users/ground/Documents/GitHub/tevel2/GlobusSatProject/..//hal/at91/lib\libAt91D.a(spi_at91.o)
 .ARM.attributes
                0x000011bc       0x32 C:/Users/ground/Documents/GitHub/tevel2/GlobusSatProject/..//hal/at91/lib\libAt91D.a(twi_at91.o)
 .ARM.attributes
                0x000011ee       0x32 C:/Users/ground/Documents/GitHub/tevel2/GlobusSatProject/..//hal/at91/lib\libAt91D.a(ExitHandler.o)
 .ARM.attributes
                0x00001220       0x22 C:/Users/ground/Documents/GitHub/tevel2/GlobusSatProject/..//hal/at91/lib\libAt91D.a(board_cstartup.o)
 .ARM.attributes
                0x00001242       0x22 C:/Users/ground/Documents/GitHub/tevel2/GlobusSatProject/..//hal/at91/lib\libAt91D.a(cp15_asm.o)
 .ARM.attributes
                0x00001264       0x32 C:/Users/ground/Documents/GitHub/tevel2/GlobusSatProject/..//hal/at91/lib\libAt91D.a(board_lowlevel.o)
 .ARM.attributes
                0x00001296       0x32 C:/Users/ground/Documents/GitHub/tevel2/GlobusSatProject/..//hal/at91/lib\libAt91D.a(board_memories.o)
 .ARM.attributes
                0x000012c8       0x18 c:/isis/application/toolchain/bin/../lib/gcc/arm-none-eabi/4.7.4\libgcc.a(_udivsi3.o)
 .ARM.attributes
                0x000012e0       0x18 c:/isis/application/toolchain/bin/../lib/gcc/arm-none-eabi/4.7.4\libgcc.a(_divsi3.o)
 .ARM.attributes
                0x000012f8       0x18 c:/isis/application/toolchain/bin/../lib/gcc/arm-none-eabi/4.7.4\libgcc.a(_dvmd_tls.o)
 .ARM.attributes
                0x00001310       0x18 c:/isis/application/toolchain/bin/../lib/gcc/arm-none-eabi/4.7.4\libgcc.a(_arm_addsubdf3.o)
 .ARM.attributes
                0x00001328       0x18 c:/isis/application/toolchain/bin/../lib/gcc/arm-none-eabi/4.7.4\libgcc.a(_arm_muldivdf3.o)
 .ARM.attributes
                0x00001340       0x18 c:/isis/application/toolchain/bin/../lib/gcc/arm-none-eabi/4.7.4\libgcc.a(_arm_cmpdf2.o)
 .ARM.attributes
                0x00001358       0x18 c:/isis/application/toolchain/bin/../lib/gcc/arm-none-eabi/4.7.4\libgcc.a(_arm_fixdfsi.o)
 .ARM.attributes
                0x00001370       0x18 c:/isis/application/toolchain/bin/../lib/gcc/arm-none-eabi/4.7.4\libgcc.a(_arm_fixunsdfsi.o)
 .ARM.attributes
                0x00001388       0x18 c:/isis/application/toolchain/bin/../lib/gcc/arm-none-eabi/4.7.4\libgcc.a(_arm_truncdfsf2.o)
 .ARM.attributes
                0x000013a0       0x18 c:/isis/application/toolchain/bin/../lib/gcc/arm-none-eabi/4.7.4\libgcc.a(_arm_addsubsf3.o)
 .ARM.attributes
                0x000013b8       0x18 c:/isis/application/toolchain/bin/../lib/gcc/arm-none-eabi/4.7.4\libgcc.a(_arm_muldivsf3.o)
 .ARM.attributes
                0x000013d0       0x18 c:/isis/application/toolchain/bin/../lib/gcc/arm-none-eabi/4.7.4\libgcc.a(_arm_fixunssfsi.o)
 .ARM.attributes
                0x000013e8       0x30 c:/isis/application/toolchain/bin/../lib/gcc/arm-none-eabi/4.7.4/../../../../arm-none-eabi/lib\libc_s.a(lib_a-errno.o)
 .ARM.attributes
                0x00001418       0x30 c:/isis/application/toolchain/bin/../lib/gcc/arm-none-eabi/4.7.4/../../../../arm-none-eabi/lib\libc_s.a(lib_a-fflush.o)
 .ARM.attributes
                0x00001448       0x30 c:/isis/application/toolchain/bin/../lib/gcc/arm-none-eabi/4.7.4/../../../../arm-none-eabi/lib\libc_s.a(lib_a-findfp.o)
 .ARM.attributes
                0x00001478       0x30 c:/isis/application/toolchain/bin/../lib/gcc/arm-none-eabi/4.7.4/../../../../arm-none-eabi/lib\libc_s.a(lib_a-fwalk.o)
 .ARM.attributes
                0x000014a8       0x30 c:/isis/application/toolchain/bin/../lib/gcc/arm-none-eabi/4.7.4/../../../../arm-none-eabi/lib\libc_s.a(lib_a-memcmp.o)
 .ARM.attributes
                0x000014d8       0x30 c:/isis/application/toolchain/bin/../lib/gcc/arm-none-eabi/4.7.4/../../../../arm-none-eabi/lib\libc_s.a(lib_a-printf.o)
 .ARM.attributes
                0x00001508       0x30 c:/isis/application/toolchain/bin/../lib/gcc/arm-none-eabi/4.7.4/../../../../arm-none-eabi/lib\libc_s.a(lib_a-stdio.o)
 .ARM.attributes
                0x00001538       0x30 c:/isis/application/toolchain/bin/../lib/gcc/arm-none-eabi/4.7.4/../../../../arm-none-eabi/lib\libc_s.a(lib_a-strcpy.o)
 .ARM.attributes
                0x00001568       0x30 c:/isis/application/toolchain/bin/../lib/gcc/arm-none-eabi/4.7.4/../../../../arm-none-eabi/lib\libc_s.a(lib_a-syswrite.o)
 .ARM.attributes
                0x00001598       0x30 c:/isis/application/toolchain/bin/../lib/gcc/arm-none-eabi/4.7.4/../../../../arm-none-eabi/lib\libc_s.a(lib_a-vfprintf.o)
 .ARM.attributes
                0x000015c8       0x30 c:/isis/application/toolchain/bin/../lib/gcc/arm-none-eabi/4.7.4/../../../../arm-none-eabi/lib\libc_s.a(lib_a-vsprintf.o)
 .ARM.attributes
                0x000015f8       0x30 c:/isis/application/toolchain/bin/../lib/gcc/arm-none-eabi/4.7.4/../../../../arm-none-eabi/lib\libc_s.a(lib_a-wbuf.o)
 .ARM.attributes
                0x00001628       0x30 c:/isis/application/toolchain/bin/../lib/gcc/arm-none-eabi/4.7.4/../../../../arm-none-eabi/lib\libc_s.a(lib_a-writer.o)
 .ARM.attributes
                0x00001658       0x30 c:/isis/application/toolchain/bin/../lib/gcc/arm-none-eabi/4.7.4/../../../../arm-none-eabi/lib\libc_s.a(lib_a-wsetup.o)
 .ARM.attributes
                0x00001688       0x30 c:/isis/application/toolchain/bin/../lib/gcc/arm-none-eabi/4.7.4/../../../../arm-none-eabi/lib\libc_s.a(lib_a-closer.o)
 .ARM.attributes
                0x000016b8       0x30 c:/isis/application/toolchain/bin/../lib/gcc/arm-none-eabi/4.7.4/../../../../arm-none-eabi/lib\libc_s.a(lib_a-lseekr.o)
 .ARM.attributes
                0x000016e8       0x30 c:/isis/application/toolchain/bin/../lib/gcc/arm-none-eabi/4.7.4/../../../../arm-none-eabi/lib\libc_s.a(lib_a-makebuf.o)
 .ARM.attributes
                0x00001718       0x30 c:/isis/application/toolchain/bin/../lib/gcc/arm-none-eabi/4.7.4/../../../../arm-none-eabi/lib\libc_s.a(lib_a-readr.o)
 .ARM.attributes
                0x00001748       0x30 c:/isis/application/toolchain/bin/../lib/gcc/arm-none-eabi/4.7.4/../../../../arm-none-eabi/lib\libc_s.a(lib_a-fstatr.o)
 .ARM.attributes
                0x00001778       0x30 c:/isis/application/toolchain/bin/../lib/gcc/arm-none-eabi/4.7.4/../../../../arm-none-eabi/lib\libc_s.a(lib_a-isattyr.o)

.comment        0x00000000       0x70
 .comment       0x00000000       0x70 ./src/SubSystemModules/PowerManagment/EPS.o
                                 0x71 (size before relaxing)
 .comment       0x00000000       0x71 ./src/SubSystemModules/PowerManagment/EPSOperationModes.o
 .comment       0x00000000       0x71 ./src/SubSystemModules/Payload/payload_drivers.o
 .comment       0x00000000       0x71 ./src/SubSystemModules/Maintenance/Log.o
 .comment       0x00000000       0x71 ./src/SubSystemModules/Maintenance/Maintenance.o
 .comment       0x00000000       0x71 ./src/SubSystemModules/Housekepping/Dump.o
 .comment       0x00000000       0x71 ./src/SubSystemModules/Housekepping/TelemetryCollector.o
 .comment       0x00000000       0x71 ./src/SubSystemModules/Communication/SubsystemCommands/EPS_Commands.o
 .comment       0x00000000       0x71 ./src/SubSystemModules/Communication/SubsystemCommands/FS_Commands.o
 .comment       0x00000000       0x71 ./src/SubSystemModules/Communication/SubsystemCommands/Maintanence_Commands.o
 .comment       0x00000000       0x71 ./src/SubSystemModules/Communication/SubsystemCommands/TRXVU_Commands.o
 .comment       0x00000000       0x71 ./src/SubSystemModules/Communication/AckHandler.o
 .comment       0x00000000       0x71 ./src/SubSystemModules/Communication/ActUponCommand.o
 .comment       0x00000000       0x71 ./src/SubSystemModules/Communication/Beacon.o
 .comment       0x00000000       0x71 ./src/SubSystemModules/Communication/CommandDictionary.o
 .comment       0x00000000       0x71 ./src/SubSystemModules/Communication/SatCommandHandler.o
 .comment       0x00000000       0x71 ./src/SubSystemModules/Communication/SatDataTx.o
 .comment       0x00000000       0x71 ./src/SubSystemModules/Communication/TRXVU.o
 .comment       0x00000000       0x71 ./src/SubSystemModules/Communication/Transponder.o
 .comment       0x00000000       0x71 ./src/InitSystem.o
 .comment       0x00000000       0x71 ./src/TLM_management.o
 .comment       0x00000000       0x71 ./src/main.o
 .comment       0x00000000       0x71 C:/Users/ground/Documents/GitHub/tevel2/GlobusSatProject/..//hal/hal/lib\libHALD.a(SPI.o)
 .comment       0x00000000       0x71 C:/Users/ground/Documents/GitHub/tevel2/GlobusSatProject/..//hal/hal/lib\libHALD.a(I2C.o)
 .comment       0x00000000       0x71 C:/Users/ground/Documents/GitHub/tevel2/GlobusSatProject/..//hal/hal/lib\libHALD.a(FRAM.o)
 .comment       0x00000000       0x71 C:/Users/ground/Documents/GitHub/tevel2/GlobusSatProject/..//hal/hal/lib\libHALD.a(Time.o)
 .comment       0x00000000       0x71 C:/Users/ground/Documents/GitHub/tevel2/GlobusSatProject/..//hal/hal/lib\libHALD.a(WatchDogTimerNoOS.o)
 .comment       0x00000000       0x71 C:/Users/ground/Documents/GitHub/tevel2/GlobusSatProject/..//hal/hal/lib\libHALD.a(RTT.o)
 .comment       0x00000000       0x71 C:/Users/ground/Documents/GitHub/tevel2/GlobusSatProject/..//hal/hal/lib\libHALD.a(RTC.o)
 .comment       0x00000000       0x71 C:/Users/ground/Documents/GitHub/tevel2/GlobusSatProject/..//hal/hal/lib\libHALD.a(WatchDogTimerOS.o)
 .comment       0x00000000       0x71 C:/Users/ground/Documents/GitHub/tevel2/GlobusSatProject/..//hal/hal/lib\libHALD.a(LED.o)
 .comment       0x00000000       0x71 C:/Users/ground/Documents/GitHub/tevel2/GlobusSatProject/..//hal/hcc/lib\libHCCD.a(fat_m.o)
 .comment       0x00000000       0x71 C:/Users/ground/Documents/GitHub/tevel2/GlobusSatProject/..//hal/hcc/lib\libHCCD.a(fat.o)
 .comment       0x00000000       0x71 C:/Users/ground/Documents/GitHub/tevel2/GlobusSatProject/..//hal/hcc/lib\libHCCD.a(fat_common.o)
 .comment       0x00000000       0x71 C:/Users/ground/Documents/GitHub/tevel2/GlobusSatProject/..//hal/hcc/lib\libHCCD.a(safefat.o)
 .comment       0x00000000       0x71 C:/Users/ground/Documents/GitHub/tevel2/GlobusSatProject/..//hal/hcc/lib\libHCCD.a(atmel_mcipdc.o)
 .comment       0x00000000       0x71 C:/Users/ground/Documents/GitHub/tevel2/GlobusSatProject/..//hal/hcc/lib\libHCCD.a(oalp_task.o)
 .comment       0x00000000       0x71 C:/Users/ground/Documents/GitHub/tevel2/GlobusSatProject/..//hal/hcc/lib\libHCCD.a(oalp_mutex.o)
 .comment       0x00000000       0x71 C:/Users/ground/Documents/GitHub/tevel2/GlobusSatProject/..//hal/hcc/lib\libHCCD.a(atmel_mcipdc_hw.o)
 .comment       0x00000000       0x71 C:/Users/ground/Documents/GitHub/tevel2/GlobusSatProject/..//hal/hcc/lib\libHCCD.a(psp_rand.o)
 .comment       0x00000000       0x71 C:/Users/ground/Documents/GitHub/tevel2/GlobusSatProject/..//hal/hcc/lib\libHCCD.a(psp_rtc.o)
 .comment       0x00000000       0x71 C:/Users/ground/Documents/GitHub/tevel2/GlobusSatProject/..//hal/hcc/lib\libHCCD.a(hcc_mem.o)
 .comment       0x00000000       0x71 C:/Users/ground/Documents/GitHub/tevel2/GlobusSatProject/..//hal/hcc/lib\libHCCD.a(psp_hcc_mem.o)
 .comment       0x00000000       0x71 C:/Users/ground/Documents/GitHub/tevel2/GlobusSatProject/..//satellite-subsystems/satellite-subsystems/lib\libSatelliteSubsystemsD.a(IsisSolarPanelv2.o)
 .comment       0x00000000       0x71 C:/Users/ground/Documents/GitHub/tevel2/GlobusSatProject/..//satellite-subsystems/satellite-subsystems/lib\libSatelliteSubsystemsD.a(isis_ants.o)
 .comment       0x00000000       0x71 C:/Users/ground/Documents/GitHub/tevel2/GlobusSatProject/..//satellite-subsystems/satellite-subsystems/lib\libSatelliteSubsystemsD.a(isis_vu_e.o)
 .comment       0x00000000       0x71 C:/Users/ground/Documents/GitHub/tevel2/GlobusSatProject/..//satellite-subsystems/satellite-subsystems/lib\libSatelliteSubsystemsD.a(isismepsv2_ivid5_piu.o)
 .comment       0x00000000       0x71 C:/Users/ground/Documents/GitHub/tevel2/GlobusSatProject/..//hal/freertos/lib\libFreeRTOSD.a(queue.o)
 .comment       0x00000000       0x71 C:/Users/ground/Documents/GitHub/tevel2/GlobusSatProject/..//hal/freertos/lib\libFreeRTOSD.a(list.o)
 .comment       0x00000000       0x71 C:/Users/ground/Documents/GitHub/tevel2/GlobusSatProject/..//hal/freertos/lib\libFreeRTOSD.a(tasks.o)
 .comment       0x00000000       0x71 C:/Users/ground/Documents/GitHub/tevel2/GlobusSatProject/..//hal/freertos/lib\libFreeRTOSD.a(timers.o)
 .comment       0x00000000       0x71 C:/Users/ground/Documents/GitHub/tevel2/GlobusSatProject/..//hal/freertos/lib\libFreeRTOSD.a(hooks.o)
 .comment       0x00000000       0x71 C:/Users/ground/Documents/GitHub/tevel2/GlobusSatProject/..//hal/freertos/lib\libFreeRTOSD.a(standardMemMang.o)
 .comment       0x00000000       0x71 C:/Users/ground/Documents/GitHub/tevel2/GlobusSatProject/..//hal/freertos/lib\libFreeRTOSD.a(port.o)
 .comment       0x00000000       0x71 C:/Users/ground/Documents/GitHub/tevel2/GlobusSatProject/..//hal/at91/lib\libAt91D.a(syscalls.o)
 .comment       0x00000000       0x71 C:/Users/ground/Documents/GitHub/tevel2/GlobusSatProject/..//hal/at91/lib\libAt91D.a(aic.o)
 .comment       0x00000000       0x71 C:/Users/ground/Documents/GitHub/tevel2/GlobusSatProject/..//hal/at91/lib\libAt91D.a(cp15.o)
 .comment       0x00000000       0x71 C:/Users/ground/Documents/GitHub/tevel2/GlobusSatProject/..//hal/at91/lib\libAt91D.a(dbgu.o)
 .comment       0x00000000       0x71 C:/Users/ground/Documents/GitHub/tevel2/GlobusSatProject/..//hal/at91/lib\libAt91D.a(pio.o)
 .comment       0x00000000       0x71 C:/Users/ground/Documents/GitHub/tevel2/GlobusSatProject/..//hal/at91/lib\libAt91D.a(pit.o)
 .comment       0x00000000       0x71 C:/Users/ground/Documents/GitHub/tevel2/GlobusSatProject/..//hal/at91/lib\libAt91D.a(pmc.o)
 .comment       0x00000000       0x71 C:/Users/ground/Documents/GitHub/tevel2/GlobusSatProject/..//hal/at91/lib\libAt91D.a(spi_at91.o)
 .comment       0x00000000       0x71 C:/Users/ground/Documents/GitHub/tevel2/GlobusSatProject/..//hal/at91/lib\libAt91D.a(twi_at91.o)
 .comment       0x00000000       0x71 C:/Users/ground/Documents/GitHub/tevel2/GlobusSatProject/..//hal/at91/lib\libAt91D.a(ExitHandler.o)
 .comment       0x00000000       0x71 C:/Users/ground/Documents/GitHub/tevel2/GlobusSatProject/..//hal/at91/lib\libAt91D.a(board_lowlevel.o)
 .comment       0x00000000       0x71 C:/Users/ground/Documents/GitHub/tevel2/GlobusSatProject/..//hal/at91/lib\libAt91D.a(board_memories.o)

.debug_frame    0x00000000     0x7f2c
 .debug_frame   0x00000000       0x80 c:/isis/application/toolchain/bin/../lib/gcc/arm-none-eabi/4.7.4/../../../../arm-none-eabi/lib\libc_s.a(lib_a-vfprintf_float.o)
 .debug_frame   0x00000080       0x5c c:/isis/application/toolchain/bin/../lib/gcc/arm-none-eabi/4.7.4/../../../../arm-none-eabi/lib\libc_s.a(lib_a-vfprintf_i.o)
 .debug_frame   0x000000dc       0x38 c:/isis/application/toolchain/bin/../lib/gcc/arm-none-eabi/4.7.4/../../../../arm-none-eabi/lib\libc_s.a(lib_a-vfscanf_float.o)
 .debug_frame   0x00000114       0x64 c:/isis/application/toolchain/bin/../lib/gcc/arm-none-eabi/4.7.4/../../../../arm-none-eabi/lib\libc_s.a(lib_a-dtoa.o)
 .debug_frame   0x00000178       0x98 c:/isis/application/toolchain/bin/../lib/gcc/arm-none-eabi/4.7.4/../../../../arm-none-eabi/lib\libc_s.a(lib_a-locale.o)
 .debug_frame   0x00000210       0x40 c:/isis/application/toolchain/bin/../lib/gcc/arm-none-eabi/4.7.4/../../../../arm-none-eabi/lib\libc_s.a(lib_a-malloc.o)
 .debug_frame   0x00000250       0x2c c:/isis/application/toolchain/bin/../lib/gcc/arm-none-eabi/4.7.4/../../../../arm-none-eabi/lib\libc_s.a(lib_a-mallocr.o)
 .debug_frame   0x0000027c       0x20 c:/isis/application/toolchain/bin/../lib/gcc/arm-none-eabi/4.7.4/../../../../arm-none-eabi/lib\libc_s.a(lib_a-memcpy.o)
 .debug_frame   0x0000029c      0x22c c:/isis/application/toolchain/bin/../lib/gcc/arm-none-eabi/4.7.4/../../../../arm-none-eabi/lib\libc_s.a(lib_a-mprec.o)
 .debug_frame   0x000004c8       0x20 c:/isis/application/toolchain/bin/../lib/gcc/arm-none-eabi/4.7.4/../../../../arm-none-eabi/lib\libc_s.a(lib_a-s_fpclassify.o)
 .debug_frame   0x000004e8       0x2c c:/isis/application/toolchain/bin/../lib/gcc/arm-none-eabi/4.7.4/../../../../arm-none-eabi/lib\libc_s.a(lib_a-sbrkr.o)
 .debug_frame   0x00000514       0x20 c:/isis/application/toolchain/bin/../lib/gcc/arm-none-eabi/4.7.4/../../../../arm-none-eabi/lib\libc_s.a(lib_a-sf_nan.o)
 .debug_frame   0x00000534       0x54 c:/isis/application/toolchain/bin/../lib/gcc/arm-none-eabi/4.7.4/../../../../arm-none-eabi/lib\libc_s.a(lib_a-sprintf.o)
 .debug_frame   0x00000588       0x20 c:/isis/application/toolchain/bin/../lib/gcc/arm-none-eabi/4.7.4/../../../../arm-none-eabi/lib\libc_s.a(lib_a-strcmp.o)
 .debug_frame   0x000005a8       0x20 c:/isis/application/toolchain/bin/../lib/gcc/arm-none-eabi/4.7.4/../../../../arm-none-eabi/lib\libc_s.a(lib_a-strlen.o)
 .debug_frame   0x000005c8       0x80 c:/isis/application/toolchain/bin/../lib/gcc/arm-none-eabi/4.7.4/../../../../arm-none-eabi/lib\libc_s.a(lib_a-strtod.o)
 .debug_frame   0x00000648       0x54 c:/isis/application/toolchain/bin/../lib/gcc/arm-none-eabi/4.7.4/../../../../arm-none-eabi/lib\libc_s.a(lib_a-strtol.o)
 .debug_frame   0x0000069c       0x88 c:/isis/application/toolchain/bin/../lib/gcc/arm-none-eabi/4.7.4/../../../../arm-none-eabi/lib\libc_s.a(lib_a-svfprintf.o)
 .debug_frame   0x00000724       0x2c c:/isis/application/toolchain/bin/../lib/gcc/arm-none-eabi/4.7.4/../../../../arm-none-eabi/lib\libc_s.a(lib_a-callocr.o)
 .debug_frame   0x00000750       0x28 c:/isis/application/toolchain/bin/../lib/gcc/arm-none-eabi/4.7.4/../../../../arm-none-eabi/lib\libc_s.a(lib_a-freer.o)
 .debug_frame   0x00000778       0x84 c:/isis/application/toolchain/bin/../lib/gcc/arm-none-eabi/4.7.4/../../../../arm-none-eabi/lib\libc_s.a(lib_a-gdtoa-gethex.o)
 .debug_frame   0x000007fc       0x54 c:/isis/application/toolchain/bin/../lib/gcc/arm-none-eabi/4.7.4/../../../../arm-none-eabi/lib\libc_s.a(lib_a-gdtoa-hexnan.o)
 .debug_frame   0x00000850       0x20 c:/isis/application/toolchain/bin/../lib/gcc/arm-none-eabi/4.7.4/../../../../arm-none-eabi/lib\libc_s.a(lib_a-memchr.o)
 .debug_frame   0x00000870       0x20 c:/isis/application/toolchain/bin/../lib/gcc/arm-none-eabi/4.7.4/../../../../arm-none-eabi/lib\libc_s.a(lib_a-memset.o)
 .debug_frame   0x00000890       0x30 c:/isis/application/toolchain/bin/../lib/gcc/arm-none-eabi/4.7.4/../../../../arm-none-eabi/lib\libc_s.a(lib_a-reallocr.o)
 .debug_frame   0x000008c0       0x64 c:/isis/application/toolchain/bin/../lib/gcc/arm-none-eabi/4.7.4/../../../../arm-none-eabi/lib\libc_s.a(lib_a-reent.o)
 .debug_frame   0x00000924       0x28 c:/isis/application/toolchain/bin/../lib/gcc/arm-none-eabi/4.7.4/../../../../arm-none-eabi/lib\libc_s.a(lib_a-strncmp.o)
 .debug_frame   0x0000094c       0x20 c:/isis/application/toolchain/bin/../lib/gcc/arm-none-eabi/4.7.4/../../../../arm-none-eabi/lib\libc_s.a(lib_a-msizer.o)
 .debug_frame   0x0000096c      0x240 ./src/SubSystemModules/PowerManagment/EPS.o
 .debug_frame   0x00000bac      0x118 ./src/SubSystemModules/PowerManagment/EPSOperationModes.o
 .debug_frame   0x00000cc4      0x10c ./src/SubSystemModules/Payload/payload_drivers.o
 .debug_frame   0x00000dd0      0x104 ./src/SubSystemModules/Maintenance/Log.o
 .debug_frame   0x00000ed4      0x128 ./src/SubSystemModules/Maintenance/Maintenance.o
 .debug_frame   0x00000ffc      0x194 ./src/SubSystemModules/Housekepping/Dump.o
 .debug_frame   0x00001190      0x2d0 ./src/SubSystemModules/Housekepping/TelemetryCollector.o
 .debug_frame   0x00001460      0x15c ./src/SubSystemModules/Communication/SubsystemCommands/EPS_Commands.o
 .debug_frame   0x000015bc       0xb8 ./src/SubSystemModules/Communication/SubsystemCommands/FS_Commands.o
 .debug_frame   0x00001674      0x208 ./src/SubSystemModules/Communication/SubsystemCommands/Maintanence_Commands.o
 .debug_frame   0x0000187c      0x1b4 ./src/SubSystemModules/Communication/SubsystemCommands/TRXVU_Commands.o
 .debug_frame   0x00001a30       0x64 ./src/SubSystemModules/Communication/AckHandler.o
 .debug_frame   0x00001a94       0x2c ./src/SubSystemModules/Communication/ActUponCommand.o
 .debug_frame   0x00001ac0       0x64 ./src/SubSystemModules/Communication/Beacon.o
 .debug_frame   0x00001b24       0x9c ./src/SubSystemModules/Communication/CommandDictionary.o
 .debug_frame   0x00001bc0       0x6c ./src/SubSystemModules/Communication/SatCommandHandler.o
 .debug_frame   0x00001c2c      0x144 ./src/SubSystemModules/Communication/SatDataTx.o
 .debug_frame   0x00001d70      0x204 ./src/SubSystemModules/Communication/TRXVU.o
 .debug_frame   0x00001f74      0x124 ./src/SubSystemModules/Communication/Transponder.o
 .debug_frame   0x00002098      0x17c ./src/InitSystem.o
 .debug_frame   0x00002214      0x390 ./src/TLM_management.o
 .debug_frame   0x000025a4       0x48 ./src/main.o
 .debug_frame   0x000025ec      0x160 C:/Users/ground/Documents/GitHub/tevel2/GlobusSatProject/..//hal/hal/lib\libHALD.a(SPI.o)
 .debug_frame   0x0000274c      0x264 C:/Users/ground/Documents/GitHub/tevel2/GlobusSatProject/..//hal/hal/lib\libHALD.a(I2C.o)
 .debug_frame   0x000029b0      0x1ac C:/Users/ground/Documents/GitHub/tevel2/GlobusSatProject/..//hal/hal/lib\libHALD.a(FRAM.o)
 .debug_frame   0x00002b5c      0x234 C:/Users/ground/Documents/GitHub/tevel2/GlobusSatProject/..//hal/hal/lib\libHALD.a(Time.o)
 .debug_frame   0x00002d90       0x64 C:/Users/ground/Documents/GitHub/tevel2/GlobusSatProject/..//hal/hal/lib\libHALD.a(WatchDogTimerNoOS.o)
 .debug_frame   0x00002df4       0xc8 C:/Users/ground/Documents/GitHub/tevel2/GlobusSatProject/..//hal/hal/lib\libHALD.a(RTT.o)
 .debug_frame   0x00002ebc       0xec C:/Users/ground/Documents/GitHub/tevel2/GlobusSatProject/..//hal/hal/lib\libHALD.a(RTC.o)
 .debug_frame   0x00002fa8       0x80 C:/Users/ground/Documents/GitHub/tevel2/GlobusSatProject/..//hal/hal/lib\libHALD.a(WatchDogTimerOS.o)
 .debug_frame   0x00003028       0xd0 C:/Users/ground/Documents/GitHub/tevel2/GlobusSatProject/..//hal/hal/lib\libHALD.a(LED.o)
 .debug_frame   0x000030f8      0x614 C:/Users/ground/Documents/GitHub/tevel2/GlobusSatProject/..//hal/hcc/lib\libHCCD.a(fat_m.o)
 .debug_frame   0x0000370c      0x47c C:/Users/ground/Documents/GitHub/tevel2/GlobusSatProject/..//hal/hcc/lib\libHCCD.a(fat.o)
 .debug_frame   0x00003b88      0xc40 C:/Users/ground/Documents/GitHub/tevel2/GlobusSatProject/..//hal/hcc/lib\libHCCD.a(fat_common.o)
 .debug_frame   0x000047c8      0x638 C:/Users/ground/Documents/GitHub/tevel2/GlobusSatProject/..//hal/hcc/lib\libHCCD.a(safefat.o)
 .debug_frame   0x00004e00      0x1c4 C:/Users/ground/Documents/GitHub/tevel2/GlobusSatProject/..//hal/hcc/lib\libHCCD.a(atmel_mcipdc.o)
 .debug_frame   0x00004fc4       0x2c C:/Users/ground/Documents/GitHub/tevel2/GlobusSatProject/..//hal/hcc/lib\libHCCD.a(oalp_task.o)
 .debug_frame   0x00004ff0       0x80 C:/Users/ground/Documents/GitHub/tevel2/GlobusSatProject/..//hal/hcc/lib\libHCCD.a(oalp_mutex.o)
 .debug_frame   0x00005070       0x80 C:/Users/ground/Documents/GitHub/tevel2/GlobusSatProject/..//hal/hcc/lib\libHCCD.a(atmel_mcipdc_hw.o)
 .debug_frame   0x000050f0       0x2c C:/Users/ground/Documents/GitHub/tevel2/GlobusSatProject/..//hal/hcc/lib\libHCCD.a(psp_rand.o)
 .debug_frame   0x0000511c       0x2c C:/Users/ground/Documents/GitHub/tevel2/GlobusSatProject/..//hal/hcc/lib\libHCCD.a(psp_rtc.o)
 .debug_frame   0x00005148      0x228 C:/Users/ground/Documents/GitHub/tevel2/GlobusSatProject/..//hal/hcc/lib\libHCCD.a(hcc_mem.o)
 .debug_frame   0x00005370       0x40 C:/Users/ground/Documents/GitHub/tevel2/GlobusSatProject/..//hal/hcc/lib\libHCCD.a(psp_hcc_mem.o)
 .debug_frame   0x000053b0      0x1e0 C:/Users/ground/Documents/GitHub/tevel2/GlobusSatProject/..//satellite-subsystems/satellite-subsystems/lib\libSatelliteSubsystemsD.a(IsisSolarPanelv2.o)
 .debug_frame   0x00005590      0x358 C:/Users/ground/Documents/GitHub/tevel2/GlobusSatProject/..//satellite-subsystems/satellite-subsystems/lib\libSatelliteSubsystemsD.a(isis_ants.o)
 .debug_frame   0x000058e8      0x588 C:/Users/ground/Documents/GitHub/tevel2/GlobusSatProject/..//satellite-subsystems/satellite-subsystems/lib\libSatelliteSubsystemsD.a(isis_vu_e.o)
 .debug_frame   0x00005e70      0x304 C:/Users/ground/Documents/GitHub/tevel2/GlobusSatProject/..//satellite-subsystems/satellite-subsystems/lib\libSatelliteSubsystemsD.a(isismepsv2_ivid5_piu.o)
 .debug_frame   0x00006174      0x374 C:/Users/ground/Documents/GitHub/tevel2/GlobusSatProject/..//hal/freertos/lib\libFreeRTOSD.a(queue.o)
 .debug_frame   0x000064e8       0x88 C:/Users/ground/Documents/GitHub/tevel2/GlobusSatProject/..//hal/freertos/lib\libFreeRTOSD.a(list.o)
 .debug_frame   0x00006570      0x420 C:/Users/ground/Documents/GitHub/tevel2/GlobusSatProject/..//hal/freertos/lib\libFreeRTOSD.a(tasks.o)
 .debug_frame   0x00006990      0x190 C:/Users/ground/Documents/GitHub/tevel2/GlobusSatProject/..//hal/freertos/lib\libFreeRTOSD.a(timers.o)
 .debug_frame   0x00006b20       0x60 C:/Users/ground/Documents/GitHub/tevel2/GlobusSatProject/..//hal/freertos/lib\libFreeRTOSD.a(hooks.o)
 .debug_frame   0x00006b80      0x104 C:/Users/ground/Documents/GitHub/tevel2/GlobusSatProject/..//hal/freertos/lib\libFreeRTOSD.a(standardMemMang.o)
 .debug_frame   0x00006c84      0x13c C:/Users/ground/Documents/GitHub/tevel2/GlobusSatProject/..//hal/freertos/lib\libFreeRTOSD.a(port.o)
 .debug_frame   0x00006dc0      0x1c4 C:/Users/ground/Documents/GitHub/tevel2/GlobusSatProject/..//hal/at91/lib\libAt91D.a(syscalls.o)
 .debug_frame   0x00006f84       0x58 C:/Users/ground/Documents/GitHub/tevel2/GlobusSatProject/..//hal/at91/lib\libAt91D.a(aic.o)
 .debug_frame   0x00006fdc      0x160 C:/Users/ground/Documents/GitHub/tevel2/GlobusSatProject/..//hal/at91/lib\libAt91D.a(cp15.o)
 .debug_frame   0x0000713c       0xcc C:/Users/ground/Documents/GitHub/tevel2/GlobusSatProject/..//hal/at91/lib\libAt91D.a(dbgu.o)
 .debug_frame   0x00007208      0x104 C:/Users/ground/Documents/GitHub/tevel2/GlobusSatProject/..//hal/at91/lib\libAt91D.a(pio.o)
 .debug_frame   0x0000730c       0xe8 C:/Users/ground/Documents/GitHub/tevel2/GlobusSatProject/..//hal/at91/lib\libAt91D.a(pit.o)
 .debug_frame   0x000073f4       0xe4 C:/Users/ground/Documents/GitHub/tevel2/GlobusSatProject/..//hal/at91/lib\libAt91D.a(pmc.o)
 .debug_frame   0x000074d8       0xe8 C:/Users/ground/Documents/GitHub/tevel2/GlobusSatProject/..//hal/at91/lib\libAt91D.a(spi_at91.o)
 .debug_frame   0x000075c0      0x1a8 C:/Users/ground/Documents/GitHub/tevel2/GlobusSatProject/..//hal/at91/lib\libAt91D.a(twi_at91.o)
 .debug_frame   0x00007768       0xb8 C:/Users/ground/Documents/GitHub/tevel2/GlobusSatProject/..//hal/at91/lib\libAt91D.a(ExitHandler.o)
 .debug_frame   0x00007820       0x98 C:/Users/ground/Documents/GitHub/tevel2/GlobusSatProject/..//hal/at91/lib\libAt91D.a(board_lowlevel.o)
 .debug_frame   0x000078b8       0x74 C:/Users/ground/Documents/GitHub/tevel2/GlobusSatProject/..//hal/at91/lib\libAt91D.a(board_memories.o)
 .debug_frame   0x0000792c       0x20 c:/isis/application/toolchain/bin/../lib/gcc/arm-none-eabi/4.7.4\libgcc.a(_udivsi3.o)
 .debug_frame   0x0000794c       0x20 c:/isis/application/toolchain/bin/../lib/gcc/arm-none-eabi/4.7.4\libgcc.a(_divsi3.o)
 .debug_frame   0x0000796c       0x20 c:/isis/application/toolchain/bin/../lib/gcc/arm-none-eabi/4.7.4/../../../../arm-none-eabi/lib\libc_s.a(lib_a-errno.o)
 .debug_frame   0x0000798c       0x48 c:/isis/application/toolchain/bin/../lib/gcc/arm-none-eabi/4.7.4/../../../../arm-none-eabi/lib\libc_s.a(lib_a-fflush.o)
 .debug_frame   0x000079d4      0x140 c:/isis/application/toolchain/bin/../lib/gcc/arm-none-eabi/4.7.4/../../../../arm-none-eabi/lib\libc_s.a(lib_a-findfp.o)
 .debug_frame   0x00007b14       0x54 c:/isis/application/toolchain/bin/../lib/gcc/arm-none-eabi/4.7.4/../../../../arm-none-eabi/lib\libc_s.a(lib_a-fwalk.o)
 .debug_frame   0x00007b68       0x28 c:/isis/application/toolchain/bin/../lib/gcc/arm-none-eabi/4.7.4/../../../../arm-none-eabi/lib\libc_s.a(lib_a-memcmp.o)
 .debug_frame   0x00007b90       0x60 c:/isis/application/toolchain/bin/../lib/gcc/arm-none-eabi/4.7.4/../../../../arm-none-eabi/lib\libc_s.a(lib_a-printf.o)
 .debug_frame   0x00007bf0       0x88 c:/isis/application/toolchain/bin/../lib/gcc/arm-none-eabi/4.7.4/../../../../arm-none-eabi/lib\libc_s.a(lib_a-stdio.o)
 .debug_frame   0x00007c78       0x20 c:/isis/application/toolchain/bin/../lib/gcc/arm-none-eabi/4.7.4/../../../../arm-none-eabi/lib\libc_s.a(lib_a-strcpy.o)
 .debug_frame   0x00007c98       0x28 c:/isis/application/toolchain/bin/../lib/gcc/arm-none-eabi/4.7.4/../../../../arm-none-eabi/lib\libc_s.a(lib_a-syswrite.o)
 .debug_frame   0x00007cc0       0x8c c:/isis/application/toolchain/bin/../lib/gcc/arm-none-eabi/4.7.4/../../../../arm-none-eabi/lib\libc_s.a(lib_a-vfprintf.o)
 .debug_frame   0x00007d4c       0x40 c:/isis/application/toolchain/bin/../lib/gcc/arm-none-eabi/4.7.4/../../../../arm-none-eabi/lib\libc_s.a(lib_a-vsprintf.o)
 .debug_frame   0x00007d8c       0x3c c:/isis/application/toolchain/bin/../lib/gcc/arm-none-eabi/4.7.4/../../../../arm-none-eabi/lib\libc_s.a(lib_a-wbuf.o)
 .debug_frame   0x00007dc8       0x2c c:/isis/application/toolchain/bin/../lib/gcc/arm-none-eabi/4.7.4/../../../../arm-none-eabi/lib\libc_s.a(lib_a-writer.o)
 .debug_frame   0x00007df4       0x2c c:/isis/application/toolchain/bin/../lib/gcc/arm-none-eabi/4.7.4/../../../../arm-none-eabi/lib\libc_s.a(lib_a-wsetup.o)
 .debug_frame   0x00007e20       0x2c c:/isis/application/toolchain/bin/../lib/gcc/arm-none-eabi/4.7.4/../../../../arm-none-eabi/lib\libc_s.a(lib_a-closer.o)
 .debug_frame   0x00007e4c       0x2c c:/isis/application/toolchain/bin/../lib/gcc/arm-none-eabi/4.7.4/../../../../arm-none-eabi/lib\libc_s.a(lib_a-lseekr.o)
 .debug_frame   0x00007e78       0x30 c:/isis/application/toolchain/bin/../lib/gcc/arm-none-eabi/4.7.4/../../../../arm-none-eabi/lib\libc_s.a(lib_a-makebuf.o)
 .debug_frame   0x00007ea8       0x2c c:/isis/application/toolchain/bin/../lib/gcc/arm-none-eabi/4.7.4/../../../../arm-none-eabi/lib\libc_s.a(lib_a-readr.o)
 .debug_frame   0x00007ed4       0x2c c:/isis/application/toolchain/bin/../lib/gcc/arm-none-eabi/4.7.4/../../../../arm-none-eabi/lib\libc_s.a(lib_a-fstatr.o)
 .debug_frame   0x00007f00       0x2c c:/isis/application/toolchain/bin/../lib/gcc/arm-none-eabi/4.7.4/../../../../arm-none-eabi/lib\libc_s.a(lib_a-isattyr.o)

.debug_info     0x00000000    0x2f6be
 .debug_info    0x00000000      0xe9b ./src/SubSystemModules/PowerManagment/EPS.o
 .debug_info    0x00000e9b      0x329 ./src/SubSystemModules/PowerManagment/EPSOperationModes.o
 .debug_info    0x000011c4      0x621 ./src/SubSystemModules/Payload/payload_drivers.o
 .debug_info    0x000017e5      0x443 ./src/SubSystemModules/Maintenance/Log.o
 .debug_info    0x00001c28      0x519 ./src/SubSystemModules/Maintenance/Maintenance.o
 .debug_info    0x00002141      0xda9 ./src/SubSystemModules/Housekepping/Dump.o
 .debug_info    0x00002eea     0x1cde ./src/SubSystemModules/Housekepping/TelemetryCollector.o
 .debug_info    0x00004bc8      0x5e0 ./src/SubSystemModules/Communication/SubsystemCommands/EPS_Commands.o
 .debug_info    0x000051a8      0x3c6 ./src/SubSystemModules/Communication/SubsystemCommands/FS_Commands.o
 .debug_info    0x0000556e      0x917 ./src/SubSystemModules/Communication/SubsystemCommands/Maintanence_Commands.o
 .debug_info    0x00005e85      0x6b4 ./src/SubSystemModules/Communication/SubsystemCommands/TRXVU_Commands.o
 .debug_info    0x00006539      0x3d2 ./src/SubSystemModules/Communication/AckHandler.o
 .debug_info    0x0000690b      0x2e7 ./src/SubSystemModules/Communication/ActUponCommand.o
 .debug_info    0x00006bf2      0xc35 ./src/SubSystemModules/Communication/Beacon.o
 .debug_info    0x00007827      0x5b7 ./src/SubSystemModules/Communication/CommandDictionary.o
 .debug_info    0x00007dde      0x3e8 ./src/SubSystemModules/Communication/SatCommandHandler.o
 .debug_info    0x000081c6      0x53b ./src/SubSystemModules/Communication/SatDataTx.o
 .debug_info    0x00008701      0xa09 ./src/SubSystemModules/Communication/TRXVU.o
 .debug_info    0x0000910a      0x504 ./src/SubSystemModules/Communication/Transponder.o
 .debug_info    0x0000960e      0xb86 ./src/InitSystem.o
 .debug_info    0x0000a194     0x10fd ./src/TLM_management.o
 .debug_info    0x0000b291      0x42a ./src/main.o
 .debug_info    0x0000b6bb     0x173e C:/Users/ground/Documents/GitHub/tevel2/GlobusSatProject/..//hal/hal/lib\libHALD.a(SPI.o)
 .debug_info    0x0000cdf9     0x1981 C:/Users/ground/Documents/GitHub/tevel2/GlobusSatProject/..//hal/hal/lib\libHALD.a(I2C.o)
 .debug_info    0x0000e77a      0x8a4 C:/Users/ground/Documents/GitHub/tevel2/GlobusSatProject/..//hal/hal/lib\libHALD.a(FRAM.o)
 .debug_info    0x0000f01e     0x1093 C:/Users/ground/Documents/GitHub/tevel2/GlobusSatProject/..//hal/hal/lib\libHALD.a(Time.o)
 .debug_info    0x000100b1      0x3f1 C:/Users/ground/Documents/GitHub/tevel2/GlobusSatProject/..//hal/hal/lib\libHALD.a(WatchDogTimerNoOS.o)
 .debug_info    0x000104a2      0x20b C:/Users/ground/Documents/GitHub/tevel2/GlobusSatProject/..//hal/hal/lib\libHALD.a(RTT.o)
 .debug_info    0x000106ad      0xf03 C:/Users/ground/Documents/GitHub/tevel2/GlobusSatProject/..//hal/hal/lib\libHALD.a(RTC.o)
 .debug_info    0x000115b0      0x1aa C:/Users/ground/Documents/GitHub/tevel2/GlobusSatProject/..//hal/hal/lib\libHALD.a(WatchDogTimerOS.o)
 .debug_info    0x0001175a      0x506 C:/Users/ground/Documents/GitHub/tevel2/GlobusSatProject/..//hal/hal/lib\libHALD.a(LED.o)
 .debug_info    0x00011c60     0x19f9 C:/Users/ground/Documents/GitHub/tevel2/GlobusSatProject/..//hal/hcc/lib\libHCCD.a(fat_m.o)
 .debug_info    0x00013659     0x28dd C:/Users/ground/Documents/GitHub/tevel2/GlobusSatProject/..//hal/hcc/lib\libHCCD.a(fat.o)
 .debug_info    0x00015f36     0x4751 C:/Users/ground/Documents/GitHub/tevel2/GlobusSatProject/..//hal/hcc/lib\libHCCD.a(fat_common.o)
 .debug_info    0x0001a687     0x2750 C:/Users/ground/Documents/GitHub/tevel2/GlobusSatProject/..//hal/hcc/lib\libHCCD.a(safefat.o)
 .debug_info    0x0001cdd7      0xd43 C:/Users/ground/Documents/GitHub/tevel2/GlobusSatProject/..//hal/hcc/lib\libHCCD.a(atmel_mcipdc.o)
 .debug_info    0x0001db1a       0xb0 C:/Users/ground/Documents/GitHub/tevel2/GlobusSatProject/..//hal/hcc/lib\libHCCD.a(oalp_task.o)
 .debug_info    0x0001dbca      0x1aa C:/Users/ground/Documents/GitHub/tevel2/GlobusSatProject/..//hal/hcc/lib\libHCCD.a(oalp_mutex.o)
 .debug_info    0x0001dd74      0x4c6 C:/Users/ground/Documents/GitHub/tevel2/GlobusSatProject/..//hal/hcc/lib\libHCCD.a(atmel_mcipdc_hw.o)
 .debug_info    0x0001e23a      0x157 C:/Users/ground/Documents/GitHub/tevel2/GlobusSatProject/..//hal/hcc/lib\libHCCD.a(psp_rand.o)
 .debug_info    0x0001e391      0x1ba C:/Users/ground/Documents/GitHub/tevel2/GlobusSatProject/..//hal/hcc/lib\libHCCD.a(psp_rtc.o)
 .debug_info    0x0001e54b      0xd35 C:/Users/ground/Documents/GitHub/tevel2/GlobusSatProject/..//hal/hcc/lib\libHCCD.a(hcc_mem.o)
 .debug_info    0x0001f280      0x1ad C:/Users/ground/Documents/GitHub/tevel2/GlobusSatProject/..//hal/hcc/lib\libHCCD.a(psp_hcc_mem.o)
 .debug_info    0x0001f42d      0xc86 C:/Users/ground/Documents/GitHub/tevel2/GlobusSatProject/..//satellite-subsystems/satellite-subsystems/lib\libSatelliteSubsystemsD.a(IsisSolarPanelv2.o)
 .debug_info    0x000200b3     0x1102 C:/Users/ground/Documents/GitHub/tevel2/GlobusSatProject/..//satellite-subsystems/satellite-subsystems/lib\libSatelliteSubsystemsD.a(isis_ants.o)
 .debug_info    0x000211b5     0x2047 C:/Users/ground/Documents/GitHub/tevel2/GlobusSatProject/..//satellite-subsystems/satellite-subsystems/lib\libSatelliteSubsystemsD.a(isis_vu_e.o)
 .debug_info    0x000231fc     0x23b5 C:/Users/ground/Documents/GitHub/tevel2/GlobusSatProject/..//satellite-subsystems/satellite-subsystems/lib\libSatelliteSubsystemsD.a(isismepsv2_ivid5_piu.o)
 .debug_info    0x000255b1      0xd24 C:/Users/ground/Documents/GitHub/tevel2/GlobusSatProject/..//hal/freertos/lib\libFreeRTOSD.a(queue.o)
 .debug_info    0x000262d5      0x2aa C:/Users/ground/Documents/GitHub/tevel2/GlobusSatProject/..//hal/freertos/lib\libFreeRTOSD.a(list.o)
 .debug_info    0x0002657f     0x17f9 C:/Users/ground/Documents/GitHub/tevel2/GlobusSatProject/..//hal/freertos/lib\libFreeRTOSD.a(tasks.o)
 .debug_info    0x00027d78      0x762 C:/Users/ground/Documents/GitHub/tevel2/GlobusSatProject/..//hal/freertos/lib\libFreeRTOSD.a(timers.o)
 .debug_info    0x000284da       0xf4 C:/Users/ground/Documents/GitHub/tevel2/GlobusSatProject/..//hal/freertos/lib\libFreeRTOSD.a(hooks.o)
 .debug_info    0x000285ce      0x214 C:/Users/ground/Documents/GitHub/tevel2/GlobusSatProject/..//hal/freertos/lib\libFreeRTOSD.a(standardMemMang.o)
 .debug_info    0x000287e2      0x5d3 C:/Users/ground/Documents/GitHub/tevel2/GlobusSatProject/..//hal/freertos/lib\libFreeRTOSD.a(port.o)
 .debug_info    0x00028db5      0x597 C:/Users/ground/Documents/GitHub/tevel2/GlobusSatProject/..//hal/at91/lib\libAt91D.a(syscalls.o)
 .debug_info    0x0002934c      0x287 C:/Users/ground/Documents/GitHub/tevel2/GlobusSatProject/..//hal/at91/lib\libAt91D.a(aic.o)
 .debug_info    0x000295d3      0xc4d C:/Users/ground/Documents/GitHub/tevel2/GlobusSatProject/..//hal/at91/lib\libAt91D.a(cp15.o)
 .debug_info    0x0002a220      0xc6e C:/Users/ground/Documents/GitHub/tevel2/GlobusSatProject/..//hal/at91/lib\libAt91D.a(dbgu.o)
 .debug_info    0x0002ae8e      0x734 C:/Users/ground/Documents/GitHub/tevel2/GlobusSatProject/..//hal/at91/lib\libAt91D.a(pio.o)
 .debug_info    0x0002b5c2      0x1ae C:/Users/ground/Documents/GitHub/tevel2/GlobusSatProject/..//hal/at91/lib\libAt91D.a(pit.o)
 .debug_info    0x0002b770      0xc40 C:/Users/ground/Documents/GitHub/tevel2/GlobusSatProject/..//hal/at91/lib\libAt91D.a(pmc.o)
 .debug_info    0x0002c3b0      0x576 C:/Users/ground/Documents/GitHub/tevel2/GlobusSatProject/..//hal/at91/lib\libAt91D.a(spi_at91.o)
 .debug_info    0x0002c926      0xf50 C:/Users/ground/Documents/GitHub/tevel2/GlobusSatProject/..//hal/at91/lib\libAt91D.a(twi_at91.o)
 .debug_info    0x0002d876      0x457 C:/Users/ground/Documents/GitHub/tevel2/GlobusSatProject/..//hal/at91/lib\libAt91D.a(ExitHandler.o)
 .debug_info    0x0002dccd       0x92 C:/Users/ground/Documents/GitHub/tevel2/GlobusSatProject/..//hal/at91/lib\libAt91D.a(board_cstartup.o)
 .debug_info    0x0002dd5f       0x81 C:/Users/ground/Documents/GitHub/tevel2/GlobusSatProject/..//hal/at91/lib\libAt91D.a(cp15_asm.o)
 .debug_info    0x0002dde0      0xf88 C:/Users/ground/Documents/GitHub/tevel2/GlobusSatProject/..//hal/at91/lib\libAt91D.a(board_lowlevel.o)
 .debug_info    0x0002ed68      0x956 C:/Users/ground/Documents/GitHub/tevel2/GlobusSatProject/..//hal/at91/lib\libAt91D.a(board_memories.o)

.debug_abbrev   0x00000000     0x6cf0
 .debug_abbrev  0x00000000      0x295 ./src/SubSystemModules/PowerManagment/EPS.o
 .debug_abbrev  0x00000295      0x136 ./src/SubSystemModules/PowerManagment/EPSOperationModes.o
 .debug_abbrev  0x000003cb      0x1ac ./src/SubSystemModules/Payload/payload_drivers.o
 .debug_abbrev  0x00000577      0x16b ./src/SubSystemModules/Maintenance/Log.o
 .debug_abbrev  0x000006e2      0x12e ./src/SubSystemModules/Maintenance/Maintenance.o
 .debug_abbrev  0x00000810      0x22e ./src/SubSystemModules/Housekepping/Dump.o
 .debug_abbrev  0x00000a3e      0x2ed ./src/SubSystemModules/Housekepping/TelemetryCollector.o
 .debug_abbrev  0x00000d2b      0x18b ./src/SubSystemModules/Communication/SubsystemCommands/EPS_Commands.o
 .debug_abbrev  0x00000eb6      0x125 ./src/SubSystemModules/Communication/SubsystemCommands/FS_Commands.o
 .debug_abbrev  0x00000fdb      0x1be ./src/SubSystemModules/Communication/SubsystemCommands/Maintanence_Commands.o
 .debug_abbrev  0x00001199      0x12f ./src/SubSystemModules/Communication/SubsystemCommands/TRXVU_Commands.o
 .debug_abbrev  0x000012c8      0x12c ./src/SubSystemModules/Communication/AckHandler.o
 .debug_abbrev  0x000013f4       0xf4 ./src/SubSystemModules/Communication/ActUponCommand.o
 .debug_abbrev  0x000014e8      0x1d8 ./src/SubSystemModules/Communication/Beacon.o
 .debug_abbrev  0x000016c0      0x148 ./src/SubSystemModules/Communication/CommandDictionary.o
 .debug_abbrev  0x00001808      0x124 ./src/SubSystemModules/Communication/SatCommandHandler.o
 .debug_abbrev  0x0000192c      0x1e2 ./src/SubSystemModules/Communication/SatDataTx.o
 .debug_abbrev  0x00001b0e      0x2c2 ./src/SubSystemModules/Communication/TRXVU.o
 .debug_abbrev  0x00001dd0      0x1d9 ./src/SubSystemModules/Communication/Transponder.o
 .debug_abbrev  0x00001fa9      0x1ff ./src/InitSystem.o
 .debug_abbrev  0x000021a8      0x249 ./src/TLM_management.o
 .debug_abbrev  0x000023f1      0x130 ./src/main.o
 .debug_abbrev  0x00002521      0x2a8 C:/Users/ground/Documents/GitHub/tevel2/GlobusSatProject/..//hal/hal/lib\libHALD.a(SPI.o)
 .debug_abbrev  0x000027c9      0x353 C:/Users/ground/Documents/GitHub/tevel2/GlobusSatProject/..//hal/hal/lib\libHALD.a(I2C.o)
 .debug_abbrev  0x00002b1c      0x260 C:/Users/ground/Documents/GitHub/tevel2/GlobusSatProject/..//hal/hal/lib\libHALD.a(FRAM.o)
 .debug_abbrev  0x00002d7c      0x2c2 C:/Users/ground/Documents/GitHub/tevel2/GlobusSatProject/..//hal/hal/lib\libHALD.a(Time.o)
 .debug_abbrev  0x0000303e       0xf6 C:/Users/ground/Documents/GitHub/tevel2/GlobusSatProject/..//hal/hal/lib\libHALD.a(WatchDogTimerNoOS.o)
 .debug_abbrev  0x00003134      0x11b C:/Users/ground/Documents/GitHub/tevel2/GlobusSatProject/..//hal/hal/lib\libHALD.a(RTT.o)
 .debug_abbrev  0x0000324f      0x21e C:/Users/ground/Documents/GitHub/tevel2/GlobusSatProject/..//hal/hal/lib\libHALD.a(RTC.o)
 .debug_abbrev  0x0000346d       0xeb C:/Users/ground/Documents/GitHub/tevel2/GlobusSatProject/..//hal/hal/lib\libHALD.a(WatchDogTimerOS.o)
 .debug_abbrev  0x00003558      0x163 C:/Users/ground/Documents/GitHub/tevel2/GlobusSatProject/..//hal/hal/lib\libHALD.a(LED.o)
 .debug_abbrev  0x000036bb      0x1c9 C:/Users/ground/Documents/GitHub/tevel2/GlobusSatProject/..//hal/hcc/lib\libHCCD.a(fat_m.o)
 .debug_abbrev  0x00003884      0x2ce C:/Users/ground/Documents/GitHub/tevel2/GlobusSatProject/..//hal/hcc/lib\libHCCD.a(fat.o)
 .debug_abbrev  0x00003b52      0x2c0 C:/Users/ground/Documents/GitHub/tevel2/GlobusSatProject/..//hal/hcc/lib\libHCCD.a(fat_common.o)
 .debug_abbrev  0x00003e12      0x265 C:/Users/ground/Documents/GitHub/tevel2/GlobusSatProject/..//hal/hcc/lib\libHCCD.a(safefat.o)
 .debug_abbrev  0x00004077      0x22f C:/Users/ground/Documents/GitHub/tevel2/GlobusSatProject/..//hal/hcc/lib\libHCCD.a(atmel_mcipdc.o)
 .debug_abbrev  0x000042a6       0x5a C:/Users/ground/Documents/GitHub/tevel2/GlobusSatProject/..//hal/hcc/lib\libHCCD.a(oalp_task.o)
 .debug_abbrev  0x00004300       0xb3 C:/Users/ground/Documents/GitHub/tevel2/GlobusSatProject/..//hal/hcc/lib\libHCCD.a(oalp_mutex.o)
 .debug_abbrev  0x000043b3      0x13e C:/Users/ground/Documents/GitHub/tevel2/GlobusSatProject/..//hal/hcc/lib\libHCCD.a(atmel_mcipdc_hw.o)
 .debug_abbrev  0x000044f1       0xad C:/Users/ground/Documents/GitHub/tevel2/GlobusSatProject/..//hal/hcc/lib\libHCCD.a(psp_rand.o)
 .debug_abbrev  0x0000459e       0xb4 C:/Users/ground/Documents/GitHub/tevel2/GlobusSatProject/..//hal/hcc/lib\libHCCD.a(psp_rtc.o)
 .debug_abbrev  0x00004652      0x1fb C:/Users/ground/Documents/GitHub/tevel2/GlobusSatProject/..//hal/hcc/lib\libHCCD.a(hcc_mem.o)
 .debug_abbrev  0x0000484d       0xb3 C:/Users/ground/Documents/GitHub/tevel2/GlobusSatProject/..//hal/hcc/lib\libHCCD.a(psp_hcc_mem.o)
 .debug_abbrev  0x00004900      0x211 C:/Users/ground/Documents/GitHub/tevel2/GlobusSatProject/..//satellite-subsystems/satellite-subsystems/lib\libSatelliteSubsystemsD.a(IsisSolarPanelv2.o)
 .debug_abbrev  0x00004b11      0x19c C:/Users/ground/Documents/GitHub/tevel2/GlobusSatProject/..//satellite-subsystems/satellite-subsystems/lib\libSatelliteSubsystemsD.a(isis_ants.o)
 .debug_abbrev  0x00004cad      0x1e8 C:/Users/ground/Documents/GitHub/tevel2/GlobusSatProject/..//satellite-subsystems/satellite-subsystems/lib\libSatelliteSubsystemsD.a(isis_vu_e.o)
 .debug_abbrev  0x00004e95      0x200 C:/Users/ground/Documents/GitHub/tevel2/GlobusSatProject/..//satellite-subsystems/satellite-subsystems/lib\libSatelliteSubsystemsD.a(isismepsv2_ivid5_piu.o)
 .debug_abbrev  0x00005095      0x1af C:/Users/ground/Documents/GitHub/tevel2/GlobusSatProject/..//hal/freertos/lib\libFreeRTOSD.a(queue.o)
 .debug_abbrev  0x00005244       0xc0 C:/Users/ground/Documents/GitHub/tevel2/GlobusSatProject/..//hal/freertos/lib\libFreeRTOSD.a(list.o)
 .debug_abbrev  0x00005304      0x2b2 C:/Users/ground/Documents/GitHub/tevel2/GlobusSatProject/..//hal/freertos/lib\libFreeRTOSD.a(tasks.o)
 .debug_abbrev  0x000055b6      0x170 C:/Users/ground/Documents/GitHub/tevel2/GlobusSatProject/..//hal/freertos/lib\libFreeRTOSD.a(timers.o)
 .debug_abbrev  0x00005726       0xa2 C:/Users/ground/Documents/GitHub/tevel2/GlobusSatProject/..//hal/freertos/lib\libFreeRTOSD.a(hooks.o)
 .debug_abbrev  0x000057c8      0x116 C:/Users/ground/Documents/GitHub/tevel2/GlobusSatProject/..//hal/freertos/lib\libFreeRTOSD.a(standardMemMang.o)
 .debug_abbrev  0x000058de      0x21e C:/Users/ground/Documents/GitHub/tevel2/GlobusSatProject/..//hal/freertos/lib\libFreeRTOSD.a(port.o)
 .debug_abbrev  0x00005afc      0x130 C:/Users/ground/Documents/GitHub/tevel2/GlobusSatProject/..//hal/at91/lib\libAt91D.a(syscalls.o)
 .debug_abbrev  0x00005c2c       0xc3 C:/Users/ground/Documents/GitHub/tevel2/GlobusSatProject/..//hal/at91/lib\libAt91D.a(aic.o)
 .debug_abbrev  0x00005cef      0x1f0 C:/Users/ground/Documents/GitHub/tevel2/GlobusSatProject/..//hal/at91/lib\libAt91D.a(cp15.o)
 .debug_abbrev  0x00005edf      0x1f7 C:/Users/ground/Documents/GitHub/tevel2/GlobusSatProject/..//hal/at91/lib\libAt91D.a(dbgu.o)
 .debug_abbrev  0x000060d6      0x185 C:/Users/ground/Documents/GitHub/tevel2/GlobusSatProject/..//hal/at91/lib\libAt91D.a(pio.o)
 .debug_abbrev  0x0000625b       0xd3 C:/Users/ground/Documents/GitHub/tevel2/GlobusSatProject/..//hal/at91/lib\libAt91D.a(pit.o)
 .debug_abbrev  0x0000632e      0x1fc C:/Users/ground/Documents/GitHub/tevel2/GlobusSatProject/..//hal/at91/lib\libAt91D.a(pmc.o)
 .debug_abbrev  0x0000652a       0xff C:/Users/ground/Documents/GitHub/tevel2/GlobusSatProject/..//hal/at91/lib\libAt91D.a(spi_at91.o)
 .debug_abbrev  0x00006629      0x24f C:/Users/ground/Documents/GitHub/tevel2/GlobusSatProject/..//hal/at91/lib\libAt91D.a(twi_at91.o)
 .debug_abbrev  0x00006878      0x15d C:/Users/ground/Documents/GitHub/tevel2/GlobusSatProject/..//hal/at91/lib\libAt91D.a(ExitHandler.o)
 .debug_abbrev  0x000069d5       0x12 C:/Users/ground/Documents/GitHub/tevel2/GlobusSatProject/..//hal/at91/lib\libAt91D.a(board_cstartup.o)
 .debug_abbrev  0x000069e7       0x14 C:/Users/ground/Documents/GitHub/tevel2/GlobusSatProject/..//hal/at91/lib\libAt91D.a(cp15_asm.o)
 .debug_abbrev  0x000069fb      0x1ac C:/Users/ground/Documents/GitHub/tevel2/GlobusSatProject/..//hal/at91/lib\libAt91D.a(board_lowlevel.o)
 .debug_abbrev  0x00006ba7      0x149 C:/Users/ground/Documents/GitHub/tevel2/GlobusSatProject/..//hal/at91/lib\libAt91D.a(board_memories.o)

.debug_loc      0x00000000     0xac7c
 .debug_loc     0x00000000      0x370 ./src/SubSystemModules/PowerManagment/EPS.o
 .debug_loc     0x00000370      0x1b8 ./src/SubSystemModules/PowerManagment/EPSOperationModes.o
 .debug_loc     0x00000528      0x18c ./src/SubSystemModules/Payload/payload_drivers.o
 .debug_loc     0x000006b4      0x198 ./src/SubSystemModules/Maintenance/Log.o
 .debug_loc     0x0000084c      0x1b8 ./src/SubSystemModules/Maintenance/Maintenance.o
 .debug_loc     0x00000a04      0x268 ./src/SubSystemModules/Housekepping/Dump.o
 .debug_loc     0x00000c6c      0x44c ./src/SubSystemModules/Housekepping/TelemetryCollector.o
 .debug_loc     0x000010b8      0x23c ./src/SubSystemModules/Communication/SubsystemCommands/EPS_Commands.o
 .debug_loc     0x000012f4      0x108 ./src/SubSystemModules/Communication/SubsystemCommands/FS_Commands.o
 .debug_loc     0x000013fc      0x318 ./src/SubSystemModules/Communication/SubsystemCommands/Maintanence_Commands.o
 .debug_loc     0x00001714      0x294 ./src/SubSystemModules/Communication/SubsystemCommands/TRXVU_Commands.o
 .debug_loc     0x000019a8       0x84 ./src/SubSystemModules/Communication/AckHandler.o
 .debug_loc     0x00001a2c       0x2c ./src/SubSystemModules/Communication/ActUponCommand.o
 .debug_loc     0x00001a58       0x84 ./src/SubSystemModules/Communication/Beacon.o
 .debug_loc     0x00001adc       0xdc ./src/SubSystemModules/Communication/CommandDictionary.o
 .debug_loc     0x00001bb8       0x84 ./src/SubSystemModules/Communication/SatCommandHandler.o
 .debug_loc     0x00001c3c      0x1e4 ./src/SubSystemModules/Communication/SatDataTx.o
 .debug_loc     0x00001e20      0x318 ./src/SubSystemModules/Communication/TRXVU.o
 .debug_loc     0x00002138      0x1b8 ./src/SubSystemModules/Communication/Transponder.o
 .debug_loc     0x000022f0      0x23c ./src/InitSystem.o
 .debug_loc     0x0000252c      0x580 ./src/TLM_management.o
 .debug_loc     0x00002aac       0x58 ./src/main.o
 .debug_loc     0x00002b04      0x210 C:/Users/ground/Documents/GitHub/tevel2/GlobusSatProject/..//hal/hal/lib\libHALD.a(SPI.o)
 .debug_loc     0x00002d14      0x3c8 C:/Users/ground/Documents/GitHub/tevel2/GlobusSatProject/..//hal/hal/lib\libHALD.a(I2C.o)
 .debug_loc     0x000030dc      0x294 C:/Users/ground/Documents/GitHub/tevel2/GlobusSatProject/..//hal/hal/lib\libHALD.a(FRAM.o)
 .debug_loc     0x00003370      0x370 C:/Users/ground/Documents/GitHub/tevel2/GlobusSatProject/..//hal/hal/lib\libHALD.a(Time.o)
 .debug_loc     0x000036e0       0x84 C:/Users/ground/Documents/GitHub/tevel2/GlobusSatProject/..//hal/hal/lib\libHALD.a(WatchDogTimerNoOS.o)
 .debug_loc     0x00003764      0x134 C:/Users/ground/Documents/GitHub/tevel2/GlobusSatProject/..//hal/hal/lib\libHALD.a(RTT.o)
 .debug_loc     0x00003898      0x160 C:/Users/ground/Documents/GitHub/tevel2/GlobusSatProject/..//hal/hal/lib\libHALD.a(RTC.o)
 .debug_loc     0x000039f8       0xb0 C:/Users/ground/Documents/GitHub/tevel2/GlobusSatProject/..//hal/hal/lib\libHALD.a(WatchDogTimerOS.o)
 .debug_loc     0x00003aa8      0x134 C:/Users/ground/Documents/GitHub/tevel2/GlobusSatProject/..//hal/hal/lib\libHALD.a(LED.o)
 .debug_loc     0x00003bdc      0x974 C:/Users/ground/Documents/GitHub/tevel2/GlobusSatProject/..//hal/hcc/lib\libHCCD.a(fat_m.o)
 .debug_loc     0x00004550      0x70c C:/Users/ground/Documents/GitHub/tevel2/GlobusSatProject/..//hal/hcc/lib\libHCCD.a(fat.o)
 .debug_loc     0x00004c5c     0x1398 C:/Users/ground/Documents/GitHub/tevel2/GlobusSatProject/..//hal/hcc/lib\libHCCD.a(fat_common.o)
 .debug_loc     0x00005ff4      0x9cc C:/Users/ground/Documents/GitHub/tevel2/GlobusSatProject/..//hal/hcc/lib\libHCCD.a(safefat.o)
 .debug_loc     0x000069c0      0x2c0 C:/Users/ground/Documents/GitHub/tevel2/GlobusSatProject/..//hal/hcc/lib\libHCCD.a(atmel_mcipdc.o)
 .debug_loc     0x00006c80       0x2c C:/Users/ground/Documents/GitHub/tevel2/GlobusSatProject/..//hal/hcc/lib\libHCCD.a(oalp_task.o)
 .debug_loc     0x00006cac       0xb0 C:/Users/ground/Documents/GitHub/tevel2/GlobusSatProject/..//hal/hcc/lib\libHCCD.a(oalp_mutex.o)
 .debug_loc     0x00006d5c       0xb0 C:/Users/ground/Documents/GitHub/tevel2/GlobusSatProject/..//hal/hcc/lib\libHCCD.a(atmel_mcipdc_hw.o)
 .debug_loc     0x00006e0c       0x2c C:/Users/ground/Documents/GitHub/tevel2/GlobusSatProject/..//hal/hcc/lib\libHCCD.a(psp_rand.o)
 .debug_loc     0x00006e38       0x2c C:/Users/ground/Documents/GitHub/tevel2/GlobusSatProject/..//hal/hcc/lib\libHCCD.a(psp_rtc.o)
 .debug_loc     0x00006e64      0x370 C:/Users/ground/Documents/GitHub/tevel2/GlobusSatProject/..//hal/hcc/lib\libHCCD.a(hcc_mem.o)
 .debug_loc     0x000071d4       0x58 C:/Users/ground/Documents/GitHub/tevel2/GlobusSatProject/..//hal/hcc/lib\libHCCD.a(psp_hcc_mem.o)
 .debug_loc     0x0000722c      0x2ec C:/Users/ground/Documents/GitHub/tevel2/GlobusSatProject/..//satellite-subsystems/satellite-subsystems/lib\libSatelliteSubsystemsD.a(IsisSolarPanelv2.o)
 .debug_loc     0x00007518      0x528 C:/Users/ground/Documents/GitHub/tevel2/GlobusSatProject/..//satellite-subsystems/satellite-subsystems/lib\libSatelliteSubsystemsD.a(isis_ants.o)
 .debug_loc     0x00007a40      0x898 C:/Users/ground/Documents/GitHub/tevel2/GlobusSatProject/..//satellite-subsystems/satellite-subsystems/lib\libSatelliteSubsystemsD.a(isis_vu_e.o)
 .debug_loc     0x000082d8      0x4a4 C:/Users/ground/Documents/GitHub/tevel2/GlobusSatProject/..//satellite-subsystems/satellite-subsystems/lib\libSatelliteSubsystemsD.a(isismepsv2_ivid5_piu.o)
 .debug_loc     0x0000877c      0x554 C:/Users/ground/Documents/GitHub/tevel2/GlobusSatProject/..//hal/freertos/lib\libFreeRTOSD.a(queue.o)
 .debug_loc     0x00008cd0       0xdc C:/Users/ground/Documents/GitHub/tevel2/GlobusSatProject/..//hal/freertos/lib\libFreeRTOSD.a(list.o)
 .debug_loc     0x00008dac      0x688 C:/Users/ground/Documents/GitHub/tevel2/GlobusSatProject/..//hal/freertos/lib\libFreeRTOSD.a(tasks.o)
 .debug_loc     0x00009434      0x268 C:/Users/ground/Documents/GitHub/tevel2/GlobusSatProject/..//hal/freertos/lib\libFreeRTOSD.a(timers.o)
 .debug_loc     0x0000969c       0x84 C:/Users/ground/Documents/GitHub/tevel2/GlobusSatProject/..//hal/freertos/lib\libFreeRTOSD.a(hooks.o)
 .debug_loc     0x00009720      0x18c C:/Users/ground/Documents/GitHub/tevel2/GlobusSatProject/..//hal/freertos/lib\libFreeRTOSD.a(standardMemMang.o)
 .debug_loc     0x000098ac      0x1b8 C:/Users/ground/Documents/GitHub/tevel2/GlobusSatProject/..//hal/freertos/lib\libFreeRTOSD.a(port.o)
 .debug_loc     0x00009a64      0x2f8 C:/Users/ground/Documents/GitHub/tevel2/GlobusSatProject/..//hal/at91/lib\libAt91D.a(syscalls.o)
 .debug_loc     0x00009d5c       0x84 C:/Users/ground/Documents/GitHub/tevel2/GlobusSatProject/..//hal/at91/lib\libAt91D.a(aic.o)
 .debug_loc     0x00009de0      0x210 C:/Users/ground/Documents/GitHub/tevel2/GlobusSatProject/..//hal/at91/lib\libAt91D.a(cp15.o)
 .debug_loc     0x00009ff0      0x134 C:/Users/ground/Documents/GitHub/tevel2/GlobusSatProject/..//hal/at91/lib\libAt91D.a(dbgu.o)
 .debug_loc     0x0000a124      0x1b8 C:/Users/ground/Documents/GitHub/tevel2/GlobusSatProject/..//hal/at91/lib\libAt91D.a(pio.o)
 .debug_loc     0x0000a2dc      0x18c C:/Users/ground/Documents/GitHub/tevel2/GlobusSatProject/..//hal/at91/lib\libAt91D.a(pit.o)
 .debug_loc     0x0000a468      0x160 C:/Users/ground/Documents/GitHub/tevel2/GlobusSatProject/..//hal/at91/lib\libAt91D.a(pmc.o)
 .debug_loc     0x0000a5c8      0x18c C:/Users/ground/Documents/GitHub/tevel2/GlobusSatProject/..//hal/at91/lib\libAt91D.a(spi_at91.o)
 .debug_loc     0x0000a754      0x294 C:/Users/ground/Documents/GitHub/tevel2/GlobusSatProject/..//hal/at91/lib\libAt91D.a(twi_at91.o)
 .debug_loc     0x0000a9e8      0x108 C:/Users/ground/Documents/GitHub/tevel2/GlobusSatProject/..//hal/at91/lib\libAt91D.a(ExitHandler.o)
 .debug_loc     0x0000aaf0       0xdc C:/Users/ground/Documents/GitHub/tevel2/GlobusSatProject/..//hal/at91/lib\libAt91D.a(board_lowlevel.o)
 .debug_loc     0x0000abcc       0xb0 C:/Users/ground/Documents/GitHub/tevel2/GlobusSatProject/..//hal/at91/lib\libAt91D.a(board_memories.o)

.debug_aranges  0x00000000     0x25e8
 .debug_aranges
                0x00000000       0xb8 ./src/SubSystemModules/PowerManagment/EPS.o
 .debug_aranges
                0x000000b8       0x68 ./src/SubSystemModules/PowerManagment/EPSOperationModes.o
 .debug_aranges
                0x00000120       0x60 ./src/SubSystemModules/Payload/payload_drivers.o
 .debug_aranges
                0x00000180       0x60 ./src/SubSystemModules/Maintenance/Log.o
 .debug_aranges
                0x000001e0       0x68 ./src/SubSystemModules/Maintenance/Maintenance.o
 .debug_aranges
                0x00000248       0x88 ./src/SubSystemModules/Housekepping/Dump.o
 .debug_aranges
                0x000002d0       0xe0 ./src/SubSystemModules/Housekepping/TelemetryCollector.o
 .debug_aranges
                0x000003b0       0x80 ./src/SubSystemModules/Communication/SubsystemCommands/EPS_Commands.o
 .debug_aranges
                0x00000430       0x48 ./src/SubSystemModules/Communication/SubsystemCommands/FS_Commands.o
 .debug_aranges
                0x00000478       0xa8 ./src/SubSystemModules/Communication/SubsystemCommands/Maintanence_Commands.o
 .debug_aranges
                0x00000520       0x90 ./src/SubSystemModules/Communication/SubsystemCommands/TRXVU_Commands.o
 .debug_aranges
                0x000005b0       0x30 ./src/SubSystemModules/Communication/AckHandler.o
 .debug_aranges
                0x000005e0       0x20 ./src/SubSystemModules/Communication/ActUponCommand.o
 .debug_aranges
                0x00000600       0x30 ./src/SubSystemModules/Communication/Beacon.o
 .debug_aranges
                0x00000630       0x40 ./src/SubSystemModules/Communication/CommandDictionary.o
 .debug_aranges
                0x00000670       0x30 ./src/SubSystemModules/Communication/SatCommandHandler.o
 .debug_aranges
                0x000006a0       0x70 ./src/SubSystemModules/Communication/SatDataTx.o
 .debug_aranges
                0x00000710       0xa8 ./src/SubSystemModules/Communication/TRXVU.o
 .debug_aranges
                0x000007b8       0x68 ./src/SubSystemModules/Communication/Transponder.o
 .debug_aranges
                0x00000820       0x80 ./src/InitSystem.o
 .debug_aranges
                0x000008a0      0x118 ./src/TLM_management.o
 .debug_aranges
                0x000009b8       0x28 ./src/main.o
 .debug_aranges
                0x000009e0       0x78 C:/Users/ground/Documents/GitHub/tevel2/GlobusSatProject/..//hal/hal/lib\libHALD.a(SPI.o)
 .debug_aranges
                0x00000a58       0xc8 C:/Users/ground/Documents/GitHub/tevel2/GlobusSatProject/..//hal/hal/lib\libHALD.a(I2C.o)
 .debug_aranges
                0x00000b20       0x90 C:/Users/ground/Documents/GitHub/tevel2/GlobusSatProject/..//hal/hal/lib\libHALD.a(FRAM.o)
 .debug_aranges
                0x00000bb0       0xb8 C:/Users/ground/Documents/GitHub/tevel2/GlobusSatProject/..//hal/hal/lib\libHALD.a(Time.o)
 .debug_aranges
                0x00000c68       0x30 C:/Users/ground/Documents/GitHub/tevel2/GlobusSatProject/..//hal/hal/lib\libHALD.a(WatchDogTimerNoOS.o)
 .debug_aranges
                0x00000c98       0x50 C:/Users/ground/Documents/GitHub/tevel2/GlobusSatProject/..//hal/hal/lib\libHALD.a(RTT.o)
 .debug_aranges
                0x00000ce8       0x58 C:/Users/ground/Documents/GitHub/tevel2/GlobusSatProject/..//hal/hal/lib\libHALD.a(RTC.o)
 .debug_aranges
                0x00000d40       0x38 C:/Users/ground/Documents/GitHub/tevel2/GlobusSatProject/..//hal/hal/lib\libHALD.a(WatchDogTimerOS.o)
 .debug_aranges
                0x00000d78       0x50 C:/Users/ground/Documents/GitHub/tevel2/GlobusSatProject/..//hal/hal/lib\libHALD.a(LED.o)
 .debug_aranges
                0x00000dc8      0x1d0 C:/Users/ground/Documents/GitHub/tevel2/GlobusSatProject/..//hal/hcc/lib\libHCCD.a(fat_m.o)
 .debug_aranges
                0x00000f98      0x160 C:/Users/ground/Documents/GitHub/tevel2/GlobusSatProject/..//hal/hcc/lib\libHCCD.a(fat.o)
 .debug_aranges
                0x000010f8      0x3a8 C:/Users/ground/Documents/GitHub/tevel2/GlobusSatProject/..//hal/hcc/lib\libHCCD.a(fat_common.o)
 .debug_aranges
                0x000014a0      0x1e0 C:/Users/ground/Documents/GitHub/tevel2/GlobusSatProject/..//hal/hcc/lib\libHCCD.a(safefat.o)
 .debug_aranges
                0x00001680       0x98 C:/Users/ground/Documents/GitHub/tevel2/GlobusSatProject/..//hal/hcc/lib\libHCCD.a(atmel_mcipdc.o)
 .debug_aranges
                0x00001718       0x20 C:/Users/ground/Documents/GitHub/tevel2/GlobusSatProject/..//hal/hcc/lib\libHCCD.a(oalp_task.o)
 .debug_aranges
                0x00001738       0x38 C:/Users/ground/Documents/GitHub/tevel2/GlobusSatProject/..//hal/hcc/lib\libHCCD.a(oalp_mutex.o)
 .debug_aranges
                0x00001770       0x38 C:/Users/ground/Documents/GitHub/tevel2/GlobusSatProject/..//hal/hcc/lib\libHCCD.a(atmel_mcipdc_hw.o)
 .debug_aranges
                0x000017a8       0x20 C:/Users/ground/Documents/GitHub/tevel2/GlobusSatProject/..//hal/hcc/lib\libHCCD.a(psp_rand.o)
 .debug_aranges
                0x000017c8       0x20 C:/Users/ground/Documents/GitHub/tevel2/GlobusSatProject/..//hal/hcc/lib\libHCCD.a(psp_rtc.o)
 .debug_aranges
                0x000017e8       0xb8 C:/Users/ground/Documents/GitHub/tevel2/GlobusSatProject/..//hal/hcc/lib\libHCCD.a(hcc_mem.o)
 .debug_aranges
                0x000018a0       0x28 C:/Users/ground/Documents/GitHub/tevel2/GlobusSatProject/..//hal/hcc/lib\libHCCD.a(psp_hcc_mem.o)
 .debug_aranges
                0x000018c8       0xa0 C:/Users/ground/Documents/GitHub/tevel2/GlobusSatProject/..//satellite-subsystems/satellite-subsystems/lib\libSatelliteSubsystemsD.a(IsisSolarPanelv2.o)
 .debug_aranges
                0x00001968      0x108 C:/Users/ground/Documents/GitHub/tevel2/GlobusSatProject/..//satellite-subsystems/satellite-subsystems/lib\libSatelliteSubsystemsD.a(isis_ants.o)
 .debug_aranges
                0x00001a70      0x1a8 C:/Users/ground/Documents/GitHub/tevel2/GlobusSatProject/..//satellite-subsystems/satellite-subsystems/lib\libSatelliteSubsystemsD.a(isis_vu_e.o)
 .debug_aranges
                0x00001c18       0xf0 C:/Users/ground/Documents/GitHub/tevel2/GlobusSatProject/..//satellite-subsystems/satellite-subsystems/lib\libSatelliteSubsystemsD.a(isismepsv2_ivid5_piu.o)
 .debug_aranges
                0x00001d08      0x110 C:/Users/ground/Documents/GitHub/tevel2/GlobusSatProject/..//hal/freertos/lib\libFreeRTOSD.a(queue.o)
 .debug_aranges
                0x00001e18       0x40 C:/Users/ground/Documents/GitHub/tevel2/GlobusSatProject/..//hal/freertos/lib\libFreeRTOSD.a(list.o)
 .debug_aranges
                0x00001e58      0x148 C:/Users/ground/Documents/GitHub/tevel2/GlobusSatProject/..//hal/freertos/lib\libFreeRTOSD.a(tasks.o)
 .debug_aranges
                0x00001fa0       0x88 C:/Users/ground/Documents/GitHub/tevel2/GlobusSatProject/..//hal/freertos/lib\libFreeRTOSD.a(timers.o)
 .debug_aranges
                0x00002028       0x30 C:/Users/ground/Documents/GitHub/tevel2/GlobusSatProject/..//hal/freertos/lib\libFreeRTOSD.a(hooks.o)
 .debug_aranges
                0x00002058       0x60 C:/Users/ground/Documents/GitHub/tevel2/GlobusSatProject/..//hal/freertos/lib\libFreeRTOSD.a(standardMemMang.o)
 .debug_aranges
                0x000020b8       0x80 C:/Users/ground/Documents/GitHub/tevel2/GlobusSatProject/..//hal/freertos/lib\libFreeRTOSD.a(port.o)
 .debug_aranges
                0x00002138       0xa0 C:/Users/ground/Documents/GitHub/tevel2/GlobusSatProject/..//hal/at91/lib\libAt91D.a(syscalls.o)
 .debug_aranges
                0x000021d8       0x30 C:/Users/ground/Documents/GitHub/tevel2/GlobusSatProject/..//hal/at91/lib\libAt91D.a(aic.o)
 .debug_aranges
                0x00002208       0x78 C:/Users/ground/Documents/GitHub/tevel2/GlobusSatProject/..//hal/at91/lib\libAt91D.a(cp15.o)
 .debug_aranges
                0x00002280       0x50 C:/Users/ground/Documents/GitHub/tevel2/GlobusSatProject/..//hal/at91/lib\libAt91D.a(dbgu.o)
 .debug_aranges
                0x000022d0       0x68 C:/Users/ground/Documents/GitHub/tevel2/GlobusSatProject/..//hal/at91/lib\libAt91D.a(pio.o)
 .debug_aranges
                0x00002338       0x60 C:/Users/ground/Documents/GitHub/tevel2/GlobusSatProject/..//hal/at91/lib\libAt91D.a(pit.o)
 .debug_aranges
                0x00002398       0x58 C:/Users/ground/Documents/GitHub/tevel2/GlobusSatProject/..//hal/at91/lib\libAt91D.a(pmc.o)
 .debug_aranges
                0x000023f0       0x60 C:/Users/ground/Documents/GitHub/tevel2/GlobusSatProject/..//hal/at91/lib\libAt91D.a(spi_at91.o)
 .debug_aranges
                0x00002450       0x90 C:/Users/ground/Documents/GitHub/tevel2/GlobusSatProject/..//hal/at91/lib\libAt91D.a(twi_at91.o)
 .debug_aranges
                0x000024e0       0x48 C:/Users/ground/Documents/GitHub/tevel2/GlobusSatProject/..//hal/at91/lib\libAt91D.a(ExitHandler.o)
 .debug_aranges
                0x00002528       0x28 C:/Users/ground/Documents/GitHub/tevel2/GlobusSatProject/..//hal/at91/lib\libAt91D.a(board_cstartup.o)
 .debug_aranges
                0x00002550       0x20 C:/Users/ground/Documents/GitHub/tevel2/GlobusSatProject/..//hal/at91/lib\libAt91D.a(cp15_asm.o)
 .debug_aranges
                0x00002570       0x40 C:/Users/ground/Documents/GitHub/tevel2/GlobusSatProject/..//hal/at91/lib\libAt91D.a(board_lowlevel.o)
 .debug_aranges
                0x000025b0       0x38 C:/Users/ground/Documents/GitHub/tevel2/GlobusSatProject/..//hal/at91/lib\libAt91D.a(board_memories.o)

.debug_ranges   0x00000000     0x22f8
 .debug_ranges  0x00000000       0xa8 ./src/SubSystemModules/PowerManagment/EPS.o
 .debug_ranges  0x000000a8       0x58 ./src/SubSystemModules/PowerManagment/EPSOperationModes.o
 .debug_ranges  0x00000100       0x50 ./src/SubSystemModules/Payload/payload_drivers.o
 .debug_ranges  0x00000150       0x50 ./src/SubSystemModules/Maintenance/Log.o
 .debug_ranges  0x000001a0       0x58 ./src/SubSystemModules/Maintenance/Maintenance.o
 .debug_ranges  0x000001f8       0xc8 ./src/SubSystemModules/Housekepping/Dump.o
 .debug_ranges  0x000002c0       0xd0 ./src/SubSystemModules/Housekepping/TelemetryCollector.o
 .debug_ranges  0x00000390       0x70 ./src/SubSystemModules/Communication/SubsystemCommands/EPS_Commands.o
 .debug_ranges  0x00000400       0x38 ./src/SubSystemModules/Communication/SubsystemCommands/FS_Commands.o
 .debug_ranges  0x00000438       0x98 ./src/SubSystemModules/Communication/SubsystemCommands/Maintanence_Commands.o
 .debug_ranges  0x000004d0       0x80 ./src/SubSystemModules/Communication/SubsystemCommands/TRXVU_Commands.o
 .debug_ranges  0x00000550       0x20 ./src/SubSystemModules/Communication/AckHandler.o
 .debug_ranges  0x00000570       0x10 ./src/SubSystemModules/Communication/ActUponCommand.o
 .debug_ranges  0x00000580       0x20 ./src/SubSystemModules/Communication/Beacon.o
 .debug_ranges  0x000005a0       0x30 ./src/SubSystemModules/Communication/CommandDictionary.o
 .debug_ranges  0x000005d0       0x20 ./src/SubSystemModules/Communication/SatCommandHandler.o
 .debug_ranges  0x000005f0       0x60 ./src/SubSystemModules/Communication/SatDataTx.o
 .debug_ranges  0x00000650       0x98 ./src/SubSystemModules/Communication/TRXVU.o
 .debug_ranges  0x000006e8       0x58 ./src/SubSystemModules/Communication/Transponder.o
 .debug_ranges  0x00000740       0x70 ./src/InitSystem.o
 .debug_ranges  0x000007b0      0x138 ./src/TLM_management.o
 .debug_ranges  0x000008e8       0x18 ./src/main.o
 .debug_ranges  0x00000900       0x68 C:/Users/ground/Documents/GitHub/tevel2/GlobusSatProject/..//hal/hal/lib\libHALD.a(SPI.o)
 .debug_ranges  0x00000968       0xb8 C:/Users/ground/Documents/GitHub/tevel2/GlobusSatProject/..//hal/hal/lib\libHALD.a(I2C.o)
 .debug_ranges  0x00000a20       0x80 C:/Users/ground/Documents/GitHub/tevel2/GlobusSatProject/..//hal/hal/lib\libHALD.a(FRAM.o)
 .debug_ranges  0x00000aa0       0xa8 C:/Users/ground/Documents/GitHub/tevel2/GlobusSatProject/..//hal/hal/lib\libHALD.a(Time.o)
 .debug_ranges  0x00000b48       0x20 C:/Users/ground/Documents/GitHub/tevel2/GlobusSatProject/..//hal/hal/lib\libHALD.a(WatchDogTimerNoOS.o)
 .debug_ranges  0x00000b68       0x40 C:/Users/ground/Documents/GitHub/tevel2/GlobusSatProject/..//hal/hal/lib\libHALD.a(RTT.o)
 .debug_ranges  0x00000ba8       0x48 C:/Users/ground/Documents/GitHub/tevel2/GlobusSatProject/..//hal/hal/lib\libHALD.a(RTC.o)
 .debug_ranges  0x00000bf0       0x28 C:/Users/ground/Documents/GitHub/tevel2/GlobusSatProject/..//hal/hal/lib\libHALD.a(WatchDogTimerOS.o)
 .debug_ranges  0x00000c18       0x40 C:/Users/ground/Documents/GitHub/tevel2/GlobusSatProject/..//hal/hal/lib\libHALD.a(LED.o)
 .debug_ranges  0x00000c58      0x1c0 C:/Users/ground/Documents/GitHub/tevel2/GlobusSatProject/..//hal/hcc/lib\libHCCD.a(fat_m.o)
 .debug_ranges  0x00000e18      0x1c8 C:/Users/ground/Documents/GitHub/tevel2/GlobusSatProject/..//hal/hcc/lib\libHCCD.a(fat.o)
 .debug_ranges  0x00000fe0      0x3b0 C:/Users/ground/Documents/GitHub/tevel2/GlobusSatProject/..//hal/hcc/lib\libHCCD.a(fat_common.o)
 .debug_ranges  0x00001390      0x1e8 C:/Users/ground/Documents/GitHub/tevel2/GlobusSatProject/..//hal/hcc/lib\libHCCD.a(safefat.o)
 .debug_ranges  0x00001578       0x88 C:/Users/ground/Documents/GitHub/tevel2/GlobusSatProject/..//hal/hcc/lib\libHCCD.a(atmel_mcipdc.o)
 .debug_ranges  0x00001600       0x10 C:/Users/ground/Documents/GitHub/tevel2/GlobusSatProject/..//hal/hcc/lib\libHCCD.a(oalp_task.o)
 .debug_ranges  0x00001610       0x28 C:/Users/ground/Documents/GitHub/tevel2/GlobusSatProject/..//hal/hcc/lib\libHCCD.a(oalp_mutex.o)
 .debug_ranges  0x00001638       0x28 C:/Users/ground/Documents/GitHub/tevel2/GlobusSatProject/..//hal/hcc/lib\libHCCD.a(atmel_mcipdc_hw.o)
 .debug_ranges  0x00001660       0x10 C:/Users/ground/Documents/GitHub/tevel2/GlobusSatProject/..//hal/hcc/lib\libHCCD.a(psp_rand.o)
 .debug_ranges  0x00001670       0x10 C:/Users/ground/Documents/GitHub/tevel2/GlobusSatProject/..//hal/hcc/lib\libHCCD.a(psp_rtc.o)
 .debug_ranges  0x00001680       0xc0 C:/Users/ground/Documents/GitHub/tevel2/GlobusSatProject/..//hal/hcc/lib\libHCCD.a(hcc_mem.o)
 .debug_ranges  0x00001740       0x18 C:/Users/ground/Documents/GitHub/tevel2/GlobusSatProject/..//hal/hcc/lib\libHCCD.a(psp_hcc_mem.o)
 .debug_ranges  0x00001758       0x90 C:/Users/ground/Documents/GitHub/tevel2/GlobusSatProject/..//satellite-subsystems/satellite-subsystems/lib\libSatelliteSubsystemsD.a(IsisSolarPanelv2.o)
 .debug_ranges  0x000017e8       0xf8 C:/Users/ground/Documents/GitHub/tevel2/GlobusSatProject/..//satellite-subsystems/satellite-subsystems/lib\libSatelliteSubsystemsD.a(isis_ants.o)
 .debug_ranges  0x000018e0      0x198 C:/Users/ground/Documents/GitHub/tevel2/GlobusSatProject/..//satellite-subsystems/satellite-subsystems/lib\libSatelliteSubsystemsD.a(isis_vu_e.o)
 .debug_ranges  0x00001a78       0xe0 C:/Users/ground/Documents/GitHub/tevel2/GlobusSatProject/..//satellite-subsystems/satellite-subsystems/lib\libSatelliteSubsystemsD.a(isismepsv2_ivid5_piu.o)
 .debug_ranges  0x00001b58      0x100 C:/Users/ground/Documents/GitHub/tevel2/GlobusSatProject/..//hal/freertos/lib\libFreeRTOSD.a(queue.o)
 .debug_ranges  0x00001c58       0x30 C:/Users/ground/Documents/GitHub/tevel2/GlobusSatProject/..//hal/freertos/lib\libFreeRTOSD.a(list.o)
 .debug_ranges  0x00001c88      0x150 C:/Users/ground/Documents/GitHub/tevel2/GlobusSatProject/..//hal/freertos/lib\libFreeRTOSD.a(tasks.o)
 .debug_ranges  0x00001dd8       0x78 C:/Users/ground/Documents/GitHub/tevel2/GlobusSatProject/..//hal/freertos/lib\libFreeRTOSD.a(timers.o)
 .debug_ranges  0x00001e50       0x20 C:/Users/ground/Documents/GitHub/tevel2/GlobusSatProject/..//hal/freertos/lib\libFreeRTOSD.a(hooks.o)
 .debug_ranges  0x00001e70       0x50 C:/Users/ground/Documents/GitHub/tevel2/GlobusSatProject/..//hal/freertos/lib\libFreeRTOSD.a(standardMemMang.o)
 .debug_ranges  0x00001ec0       0x70 C:/Users/ground/Documents/GitHub/tevel2/GlobusSatProject/..//hal/freertos/lib\libFreeRTOSD.a(port.o)
 .debug_ranges  0x00001f30       0x90 C:/Users/ground/Documents/GitHub/tevel2/GlobusSatProject/..//hal/at91/lib\libAt91D.a(syscalls.o)
 .debug_ranges  0x00001fc0       0x20 C:/Users/ground/Documents/GitHub/tevel2/GlobusSatProject/..//hal/at91/lib\libAt91D.a(aic.o)
 .debug_ranges  0x00001fe0       0x68 C:/Users/ground/Documents/GitHub/tevel2/GlobusSatProject/..//hal/at91/lib\libAt91D.a(cp15.o)
 .debug_ranges  0x00002048       0x40 C:/Users/ground/Documents/GitHub/tevel2/GlobusSatProject/..//hal/at91/lib\libAt91D.a(dbgu.o)
 .debug_ranges  0x00002088       0x58 C:/Users/ground/Documents/GitHub/tevel2/GlobusSatProject/..//hal/at91/lib\libAt91D.a(pio.o)
 .debug_ranges  0x000020e0       0x50 C:/Users/ground/Documents/GitHub/tevel2/GlobusSatProject/..//hal/at91/lib\libAt91D.a(pit.o)
 .debug_ranges  0x00002130       0x48 C:/Users/ground/Documents/GitHub/tevel2/GlobusSatProject/..//hal/at91/lib\libAt91D.a(pmc.o)
 .debug_ranges  0x00002178       0x50 C:/Users/ground/Documents/GitHub/tevel2/GlobusSatProject/..//hal/at91/lib\libAt91D.a(spi_at91.o)
 .debug_ranges  0x000021c8       0x80 C:/Users/ground/Documents/GitHub/tevel2/GlobusSatProject/..//hal/at91/lib\libAt91D.a(twi_at91.o)
 .debug_ranges  0x00002248       0x38 C:/Users/ground/Documents/GitHub/tevel2/GlobusSatProject/..//hal/at91/lib\libAt91D.a(ExitHandler.o)
 .debug_ranges  0x00002280       0x20 C:/Users/ground/Documents/GitHub/tevel2/GlobusSatProject/..//hal/at91/lib\libAt91D.a(board_cstartup.o)
 .debug_ranges  0x000022a0       0x30 C:/Users/ground/Documents/GitHub/tevel2/GlobusSatProject/..//hal/at91/lib\libAt91D.a(board_lowlevel.o)
 .debug_ranges  0x000022d0       0x28 C:/Users/ground/Documents/GitHub/tevel2/GlobusSatProject/..//hal/at91/lib\libAt91D.a(board_memories.o)

.debug_line     0x00000000    0x10bee
 .debug_line    0x00000000      0x5c3 ./src/SubSystemModules/PowerManagment/EPS.o
 .debug_line    0x000005c3      0x27d ./src/SubSystemModules/PowerManagment/EPSOperationModes.o
 .debug_line    0x00000840      0x451 ./src/SubSystemModules/Payload/payload_drivers.o
 .debug_line    0x00000c91      0x266 ./src/SubSystemModules/Maintenance/Log.o
 .debug_line    0x00000ef7      0x39b ./src/SubSystemModules/Maintenance/Maintenance.o
 .debug_line    0x00001292      0x727 ./src/SubSystemModules/Housekepping/Dump.o
 .debug_line    0x000019b9      0x830 ./src/SubSystemModules/Housekepping/TelemetryCollector.o
 .debug_line    0x000021e9      0x38f ./src/SubSystemModules/Communication/SubsystemCommands/EPS_Commands.o
 .debug_line    0x00002578      0x27e ./src/SubSystemModules/Communication/SubsystemCommands/FS_Commands.o
 .debug_line    0x000027f6      0x5e8 ./src/SubSystemModules/Communication/SubsystemCommands/Maintanence_Commands.o
 .debug_line    0x00002dde      0x3d7 ./src/SubSystemModules/Communication/SubsystemCommands/TRXVU_Commands.o
 .debug_line    0x000031b5      0x18a ./src/SubSystemModules/Communication/AckHandler.o
 .debug_line    0x0000333f      0x103 ./src/SubSystemModules/Communication/ActUponCommand.o
 .debug_line    0x00003442      0x3f3 ./src/SubSystemModules/Communication/Beacon.o
 .debug_line    0x00003835      0x28f ./src/SubSystemModules/Communication/CommandDictionary.o
 .debug_line    0x00003ac4      0x274 ./src/SubSystemModules/Communication/SatCommandHandler.o
 .debug_line    0x00003d38      0x49c ./src/SubSystemModules/Communication/SatDataTx.o
 .debug_line    0x000041d4      0x593 ./src/SubSystemModules/Communication/TRXVU.o
 .debug_line    0x00004767      0x3ab ./src/SubSystemModules/Communication/Transponder.o
 .debug_line    0x00004b12      0x589 ./src/InitSystem.o
 .debug_line    0x0000509b      0x6c0 ./src/TLM_management.o
 .debug_line    0x0000575b      0x25d ./src/main.o
 .debug_line    0x000059b8      0x4bc C:/Users/ground/Documents/GitHub/tevel2/GlobusSatProject/..//hal/hal/lib\libHALD.a(SPI.o)
 .debug_line    0x00005e74      0x5d0 C:/Users/ground/Documents/GitHub/tevel2/GlobusSatProject/..//hal/hal/lib\libHALD.a(I2C.o)
 .debug_line    0x00006444      0x373 C:/Users/ground/Documents/GitHub/tevel2/GlobusSatProject/..//hal/hal/lib\libHALD.a(FRAM.o)
 .debug_line    0x000067b7      0x4c0 C:/Users/ground/Documents/GitHub/tevel2/GlobusSatProject/..//hal/hal/lib\libHALD.a(Time.o)
 .debug_line    0x00006c77       0xe3 C:/Users/ground/Documents/GitHub/tevel2/GlobusSatProject/..//hal/hal/lib\libHALD.a(WatchDogTimerNoOS.o)
 .debug_line    0x00006d5a      0x14b C:/Users/ground/Documents/GitHub/tevel2/GlobusSatProject/..//hal/hal/lib\libHALD.a(RTT.o)
 .debug_line    0x00006ea5      0x318 C:/Users/ground/Documents/GitHub/tevel2/GlobusSatProject/..//hal/hal/lib\libHALD.a(RTC.o)
 .debug_line    0x000071bd      0x147 C:/Users/ground/Documents/GitHub/tevel2/GlobusSatProject/..//hal/hal/lib\libHALD.a(WatchDogTimerOS.o)
 .debug_line    0x00007304      0x1fa C:/Users/ground/Documents/GitHub/tevel2/GlobusSatProject/..//hal/hal/lib\libHALD.a(LED.o)
 .debug_line    0x000074fe      0x61b C:/Users/ground/Documents/GitHub/tevel2/GlobusSatProject/..//hal/hcc/lib\libHCCD.a(fat_m.o)
 .debug_line    0x00007b19     0x1049 C:/Users/ground/Documents/GitHub/tevel2/GlobusSatProject/..//hal/hcc/lib\libHCCD.a(fat.o)
 .debug_line    0x00008b62     0x1b61 C:/Users/ground/Documents/GitHub/tevel2/GlobusSatProject/..//hal/hcc/lib\libHCCD.a(fat_common.o)
 .debug_line    0x0000a6c3      0xc81 C:/Users/ground/Documents/GitHub/tevel2/GlobusSatProject/..//hal/hcc/lib\libHCCD.a(safefat.o)
 .debug_line    0x0000b344      0x53c C:/Users/ground/Documents/GitHub/tevel2/GlobusSatProject/..//hal/hcc/lib\libHCCD.a(atmel_mcipdc.o)
 .debug_line    0x0000b880       0x92 C:/Users/ground/Documents/GitHub/tevel2/GlobusSatProject/..//hal/hcc/lib\libHCCD.a(oalp_task.o)
 .debug_line    0x0000b912      0x14d C:/Users/ground/Documents/GitHub/tevel2/GlobusSatProject/..//hal/hcc/lib\libHCCD.a(oalp_mutex.o)
 .debug_line    0x0000ba5f      0x18b C:/Users/ground/Documents/GitHub/tevel2/GlobusSatProject/..//hal/hcc/lib\libHCCD.a(atmel_mcipdc_hw.o)
 .debug_line    0x0000bbea      0x108 C:/Users/ground/Documents/GitHub/tevel2/GlobusSatProject/..//hal/hcc/lib\libHCCD.a(psp_rand.o)
 .debug_line    0x0000bcf2      0x116 C:/Users/ground/Documents/GitHub/tevel2/GlobusSatProject/..//hal/hcc/lib\libHCCD.a(psp_rtc.o)
 .debug_line    0x0000be08      0x57f C:/Users/ground/Documents/GitHub/tevel2/GlobusSatProject/..//hal/hcc/lib\libHCCD.a(hcc_mem.o)
 .debug_line    0x0000c387      0x117 C:/Users/ground/Documents/GitHub/tevel2/GlobusSatProject/..//hal/hcc/lib\libHCCD.a(psp_hcc_mem.o)
 .debug_line    0x0000c49e      0x467 C:/Users/ground/Documents/GitHub/tevel2/GlobusSatProject/..//satellite-subsystems/satellite-subsystems/lib\libSatelliteSubsystemsD.a(IsisSolarPanelv2.o)
 .debug_line    0x0000c905      0x4e8 C:/Users/ground/Documents/GitHub/tevel2/GlobusSatProject/..//satellite-subsystems/satellite-subsystems/lib\libSatelliteSubsystemsD.a(isis_ants.o)
 .debug_line    0x0000cded      0x824 C:/Users/ground/Documents/GitHub/tevel2/GlobusSatProject/..//satellite-subsystems/satellite-subsystems/lib\libSatelliteSubsystemsD.a(isis_vu_e.o)
 .debug_line    0x0000d611      0x56d C:/Users/ground/Documents/GitHub/tevel2/GlobusSatProject/..//satellite-subsystems/satellite-subsystems/lib\libSatelliteSubsystemsD.a(isismepsv2_ivid5_piu.o)
 .debug_line    0x0000db7e      0x671 C:/Users/ground/Documents/GitHub/tevel2/GlobusSatProject/..//hal/freertos/lib\libFreeRTOSD.a(queue.o)
 .debug_line    0x0000e1ef      0x10e C:/Users/ground/Documents/GitHub/tevel2/GlobusSatProject/..//hal/freertos/lib\libFreeRTOSD.a(list.o)
 .debug_line    0x0000e2fd      0x8c0 C:/Users/ground/Documents/GitHub/tevel2/GlobusSatProject/..//hal/freertos/lib\libFreeRTOSD.a(tasks.o)
 .debug_line    0x0000ebbd      0x2a6 C:/Users/ground/Documents/GitHub/tevel2/GlobusSatProject/..//hal/freertos/lib\libFreeRTOSD.a(timers.o)
 .debug_line    0x0000ee63       0x89 C:/Users/ground/Documents/GitHub/tevel2/GlobusSatProject/..//hal/freertos/lib\libFreeRTOSD.a(hooks.o)
 .debug_line    0x0000eeec      0x13e C:/Users/ground/Documents/GitHub/tevel2/GlobusSatProject/..//hal/freertos/lib\libFreeRTOSD.a(standardMemMang.o)
 .debug_line    0x0000f02a      0x215 C:/Users/ground/Documents/GitHub/tevel2/GlobusSatProject/..//hal/freertos/lib\libFreeRTOSD.a(port.o)
 .debug_line    0x0000f23f      0x2e4 C:/Users/ground/Documents/GitHub/tevel2/GlobusSatProject/..//hal/at91/lib\libAt91D.a(syscalls.o)
 .debug_line    0x0000f523       0xb2 C:/Users/ground/Documents/GitHub/tevel2/GlobusSatProject/..//hal/at91/lib\libAt91D.a(aic.o)
 .debug_line    0x0000f5d5      0x223 C:/Users/ground/Documents/GitHub/tevel2/GlobusSatProject/..//hal/at91/lib\libAt91D.a(cp15.o)
 .debug_line    0x0000f7f8      0x278 C:/Users/ground/Documents/GitHub/tevel2/GlobusSatProject/..//hal/at91/lib\libAt91D.a(dbgu.o)
 .debug_line    0x0000fa70      0x1b7 C:/Users/ground/Documents/GitHub/tevel2/GlobusSatProject/..//hal/at91/lib\libAt91D.a(pio.o)
 .debug_line    0x0000fc27      0x136 C:/Users/ground/Documents/GitHub/tevel2/GlobusSatProject/..//hal/at91/lib\libAt91D.a(pit.o)
 .debug_line    0x0000fd5d      0x220 C:/Users/ground/Documents/GitHub/tevel2/GlobusSatProject/..//hal/at91/lib\libAt91D.a(pmc.o)
 .debug_line    0x0000ff7d      0x14e C:/Users/ground/Documents/GitHub/tevel2/GlobusSatProject/..//hal/at91/lib\libAt91D.a(spi_at91.o)
 .debug_line    0x000100cb      0x3c2 C:/Users/ground/Documents/GitHub/tevel2/GlobusSatProject/..//hal/at91/lib\libAt91D.a(twi_at91.o)
 .debug_line    0x0001048d      0x29a C:/Users/ground/Documents/GitHub/tevel2/GlobusSatProject/..//hal/at91/lib\libAt91D.a(ExitHandler.o)
 .debug_line    0x00010727      0x11d C:/Users/ground/Documents/GitHub/tevel2/GlobusSatProject/..//hal/at91/lib\libAt91D.a(board_cstartup.o)
 .debug_line    0x00010844       0x6f C:/Users/ground/Documents/GitHub/tevel2/GlobusSatProject/..//hal/at91/lib\libAt91D.a(cp15_asm.o)
 .debug_line    0x000108b3      0x1fb C:/Users/ground/Documents/GitHub/tevel2/GlobusSatProject/..//hal/at91/lib\libAt91D.a(board_lowlevel.o)
 .debug_line    0x00010aae      0x140 C:/Users/ground/Documents/GitHub/tevel2/GlobusSatProject/..//hal/at91/lib\libAt91D.a(board_memories.o)

.debug_str      0x00000000     0xb813
 .debug_str     0x00000000      0xb65 ./src/SubSystemModules/PowerManagment/EPS.o
                                0xcdc (size before relaxing)
 .debug_str     0x00000b65      0x18b ./src/SubSystemModules/PowerManagment/EPSOperationModes.o
                                0x339 (size before relaxing)
 .debug_str     0x00000cf0      0x26c ./src/SubSystemModules/Payload/payload_drivers.o
                                0x6b2 (size before relaxing)
 .debug_str     0x00000f5c      0x227 ./src/SubSystemModules/Maintenance/Log.o
                                0x3cf (size before relaxing)
 .debug_str     0x00001183      0x514 ./src/SubSystemModules/Maintenance/Maintenance.o
                                0x6ad (size before relaxing)
 .debug_str     0x00001697      0x46a ./src/SubSystemModules/Housekepping/Dump.o
                                0xa31 (size before relaxing)
 .debug_str     0x00001b01      0x861 ./src/SubSystemModules/Housekepping/TelemetryCollector.o
                               0x12dd (size before relaxing)
 .debug_str     0x00002362      0x1b2 ./src/SubSystemModules/Communication/SubsystemCommands/EPS_Commands.o
                                0x5f3 (size before relaxing)
 .debug_str     0x00002514       0xca ./src/SubSystemModules/Communication/SubsystemCommands/FS_Commands.o
                                0x29c (size before relaxing)
 .debug_str     0x000025de      0x213 ./src/SubSystemModules/Communication/SubsystemCommands/Maintanence_Commands.o
                                0x7fe (size before relaxing)
 .debug_str     0x000027f1      0x1ca ./src/SubSystemModules/Communication/SubsystemCommands/TRXVU_Commands.o
                                0x4c1 (size before relaxing)
 .debug_str     0x000029bb       0x92 ./src/SubSystemModules/Communication/AckHandler.o
                                0x553 (size before relaxing)
 .debug_str     0x00002a4d       0x46 ./src/SubSystemModules/Communication/ActUponCommand.o
                                0x4f7 (size before relaxing)
 .debug_str     0x00002a93      0x1e9 ./src/SubSystemModules/Communication/Beacon.o
                                0xb41 (size before relaxing)
 .debug_str     0x00002c7c      0x4b1 ./src/SubSystemModules/Communication/CommandDictionary.o
                                0xb1b (size before relaxing)
 .debug_str     0x0000312d      0x147 ./src/SubSystemModules/Communication/SatCommandHandler.o
                                0x340 (size before relaxing)
 .debug_str     0x00003274      0x2a8 ./src/SubSystemModules/Communication/SatDataTx.o
                                0x4f9 (size before relaxing)
 .debug_str     0x0000351c      0x390 ./src/SubSystemModules/Communication/TRXVU.o
                                0xce8 (size before relaxing)
 .debug_str     0x000038ac      0x14f ./src/SubSystemModules/Communication/Transponder.o
                                0x39c (size before relaxing)
 .debug_str     0x000039fb      0x480 ./src/InitSystem.o
                                0x80b (size before relaxing)
 .debug_str     0x00003e7b      0x3f0 ./src/TLM_management.o
                                0x864 (size before relaxing)
 .debug_str     0x0000426b       0x2f ./src/main.o
                                0x2e7 (size before relaxing)
 .debug_str     0x0000429a      0x83a C:/Users/ground/Documents/GitHub/tevel2/GlobusSatProject/..//hal/hal/lib\libHALD.a(SPI.o)
                                0xc8a (size before relaxing)
 .debug_str     0x00004ad4      0x55b C:/Users/ground/Documents/GitHub/tevel2/GlobusSatProject/..//hal/hal/lib\libHALD.a(I2C.o)
                                0xde0 (size before relaxing)
 .debug_str     0x0000502f      0x1c5 C:/Users/ground/Documents/GitHub/tevel2/GlobusSatProject/..//hal/hal/lib\libHALD.a(FRAM.o)
                                0x5a5 (size before relaxing)
 .debug_str     0x000051f4      0x2be C:/Users/ground/Documents/GitHub/tevel2/GlobusSatProject/..//hal/hal/lib\libHALD.a(Time.o)
                                0x83b (size before relaxing)
 .debug_str     0x000054b2       0x6b C:/Users/ground/Documents/GitHub/tevel2/GlobusSatProject/..//hal/hal/lib\libHALD.a(WatchDogTimerNoOS.o)
                                0x2f3 (size before relaxing)
 .debug_str     0x0000551d       0x96 C:/Users/ground/Documents/GitHub/tevel2/GlobusSatProject/..//hal/hal/lib\libHALD.a(RTT.o)
                                0x20d (size before relaxing)
 .debug_str     0x000055b3       0xeb C:/Users/ground/Documents/GitHub/tevel2/GlobusSatProject/..//hal/hal/lib\libHALD.a(RTC.o)
                                0x898 (size before relaxing)
 .debug_str     0x0000569e       0xef C:/Users/ground/Documents/GitHub/tevel2/GlobusSatProject/..//hal/hal/lib\libHALD.a(WatchDogTimerOS.o)
                                0x22e (size before relaxing)
 .debug_str     0x0000578d       0x72 C:/Users/ground/Documents/GitHub/tevel2/GlobusSatProject/..//hal/hal/lib\libHALD.a(LED.o)
                                0x31d (size before relaxing)
 .debug_str     0x000057ff      0x54e C:/Users/ground/Documents/GitHub/tevel2/GlobusSatProject/..//hal/hcc/lib\libHCCD.a(fat_m.o)
                                0x7fd (size before relaxing)
 .debug_str     0x00005d4d      0x7c4 C:/Users/ground/Documents/GitHub/tevel2/GlobusSatProject/..//hal/hcc/lib\libHCCD.a(fat.o)
                                0xd16 (size before relaxing)
 .debug_str     0x00006511      0xaae C:/Users/ground/Documents/GitHub/tevel2/GlobusSatProject/..//hal/hcc/lib\libHCCD.a(fat_common.o)
                               0x1610 (size before relaxing)
 .debug_str     0x00006fbf      0x52c C:/Users/ground/Documents/GitHub/tevel2/GlobusSatProject/..//hal/hcc/lib\libHCCD.a(safefat.o)
                                0xdcf (size before relaxing)
 .debug_str     0x000074eb      0x34d C:/Users/ground/Documents/GitHub/tevel2/GlobusSatProject/..//hal/hcc/lib\libHCCD.a(atmel_mcipdc.o)
                                0x643 (size before relaxing)
 .debug_str     0x00007838       0x27 C:/Users/ground/Documents/GitHub/tevel2/GlobusSatProject/..//hal/hcc/lib\libHCCD.a(oalp_task.o)
                                0x154 (size before relaxing)
 .debug_str     0x0000785f       0x8d C:/Users/ground/Documents/GitHub/tevel2/GlobusSatProject/..//hal/hcc/lib\libHCCD.a(oalp_mutex.o)
                                0x1df (size before relaxing)
 .debug_str     0x000078ec       0xc0 C:/Users/ground/Documents/GitHub/tevel2/GlobusSatProject/..//hal/hcc/lib\libHCCD.a(atmel_mcipdc_hw.o)
                                0x3bb (size before relaxing)
 .debug_str     0x000079ac       0x32 C:/Users/ground/Documents/GitHub/tevel2/GlobusSatProject/..//hal/hcc/lib\libHCCD.a(psp_rand.o)
                                0x175 (size before relaxing)
 .debug_str     0x000079de       0x34 C:/Users/ground/Documents/GitHub/tevel2/GlobusSatProject/..//hal/hcc/lib\libHCCD.a(psp_rtc.o)
                                0x1b2 (size before relaxing)
 .debug_str     0x00007a12      0x2eb C:/Users/ground/Documents/GitHub/tevel2/GlobusSatProject/..//hal/hcc/lib\libHCCD.a(hcc_mem.o)
                                0x4fa (size before relaxing)
 .debug_str     0x00007cfd       0x7a C:/Users/ground/Documents/GitHub/tevel2/GlobusSatProject/..//hal/hcc/lib\libHCCD.a(psp_hcc_mem.o)
                                0x1d7 (size before relaxing)
 .debug_str     0x00007d77      0x2a1 C:/Users/ground/Documents/GitHub/tevel2/GlobusSatProject/..//satellite-subsystems/satellite-subsystems/lib\libSatelliteSubsystemsD.a(IsisSolarPanelv2.o)
                                0x99a (size before relaxing)
 .debug_str     0x00008018      0x37c C:/Users/ground/Documents/GitHub/tevel2/GlobusSatProject/..//satellite-subsystems/satellite-subsystems/lib\libSatelliteSubsystemsD.a(isis_ants.o)
                                0x8b3 (size before relaxing)
 .debug_str     0x00008394      0x888 C:/Users/ground/Documents/GitHub/tevel2/GlobusSatProject/..//satellite-subsystems/satellite-subsystems/lib\libSatelliteSubsystemsD.a(isis_vu_e.o)
                               0x1221 (size before relaxing)
 .debug_str     0x00008c1c      0x895 C:/Users/ground/Documents/GitHub/tevel2/GlobusSatProject/..//satellite-subsystems/satellite-subsystems/lib\libSatelliteSubsystemsD.a(isismepsv2_ivid5_piu.o)
                               0x15b7 (size before relaxing)
 .debug_str     0x000094b1      0x621 C:/Users/ground/Documents/GitHub/tevel2/GlobusSatProject/..//hal/freertos/lib\libFreeRTOSD.a(queue.o)
                                0x76b (size before relaxing)
 .debug_str     0x00009ad2       0xa1 C:/Users/ground/Documents/GitHub/tevel2/GlobusSatProject/..//hal/freertos/lib\libFreeRTOSD.a(list.o)
                                0x257 (size before relaxing)
 .debug_str     0x00009b73      0x72a C:/Users/ground/Documents/GitHub/tevel2/GlobusSatProject/..//hal/freertos/lib\libFreeRTOSD.a(tasks.o)
                                0xd57 (size before relaxing)
 .debug_str     0x0000a29d      0x334 C:/Users/ground/Documents/GitHub/tevel2/GlobusSatProject/..//hal/freertos/lib\libFreeRTOSD.a(timers.o)
                                0x565 (size before relaxing)
 .debug_str     0x0000a5d1       0x57 C:/Users/ground/Documents/GitHub/tevel2/GlobusSatProject/..//hal/freertos/lib\libFreeRTOSD.a(hooks.o)
                                0x19b (size before relaxing)
 .debug_str     0x0000a628       0xfc C:/Users/ground/Documents/GitHub/tevel2/GlobusSatProject/..//hal/freertos/lib\libFreeRTOSD.a(standardMemMang.o)
                                0x238 (size before relaxing)
 .debug_str     0x0000a724      0x295 C:/Users/ground/Documents/GitHub/tevel2/GlobusSatProject/..//hal/freertos/lib\libFreeRTOSD.a(port.o)
                                0x492 (size before relaxing)
 .debug_str     0x0000a9b9      0x17e C:/Users/ground/Documents/GitHub/tevel2/GlobusSatProject/..//hal/at91/lib\libAt91D.a(syscalls.o)
                                0x2c6 (size before relaxing)
 .debug_str     0x0000ab37      0x104 C:/Users/ground/Documents/GitHub/tevel2/GlobusSatProject/..//hal/at91/lib\libAt91D.a(aic.o)
                                0x1be (size before relaxing)
 .debug_str     0x0000ac3b      0x12a C:/Users/ground/Documents/GitHub/tevel2/GlobusSatProject/..//hal/at91/lib\libAt91D.a(cp15.o)
                                0x602 (size before relaxing)
 .debug_str     0x0000ad65       0x7e C:/Users/ground/Documents/GitHub/tevel2/GlobusSatProject/..//hal/at91/lib\libAt91D.a(dbgu.o)
                                0x65a (size before relaxing)
 .debug_str     0x0000ade3       0xde C:/Users/ground/Documents/GitHub/tevel2/GlobusSatProject/..//hal/at91/lib\libAt91D.a(pio.o)
                                0x408 (size before relaxing)
 .debug_str     0x0000aec1       0x94 C:/Users/ground/Documents/GitHub/tevel2/GlobusSatProject/..//hal/at91/lib\libAt91D.a(pit.o)
                                0x17c (size before relaxing)
 .debug_str     0x0000af55       0xcf C:/Users/ground/Documents/GitHub/tevel2/GlobusSatProject/..//hal/at91/lib\libAt91D.a(pmc.o)
                                0x670 (size before relaxing)
 .debug_str     0x0000b024       0xa1 C:/Users/ground/Documents/GitHub/tevel2/GlobusSatProject/..//hal/at91/lib\libAt91D.a(spi_at91.o)
                                0x2f4 (size before relaxing)
 .debug_str     0x0000b0c5      0x161 C:/Users/ground/Documents/GitHub/tevel2/GlobusSatProject/..//hal/at91/lib\libAt91D.a(twi_at91.o)
                                0x774 (size before relaxing)
 .debug_str     0x0000b226      0x1a0 C:/Users/ground/Documents/GitHub/tevel2/GlobusSatProject/..//hal/at91/lib\libAt91D.a(ExitHandler.o)
                                0x2e5 (size before relaxing)
 .debug_str     0x0000b3c6      0x23d C:/Users/ground/Documents/GitHub/tevel2/GlobusSatProject/..//hal/at91/lib\libAt91D.a(board_lowlevel.o)
                                0x88a (size before relaxing)
 .debug_str     0x0000b603      0x210 C:/Users/ground/Documents/GitHub/tevel2/GlobusSatProject/..//hal/at91/lib\libAt91D.a(board_memories.o)
                                0x641 (size before relaxing)
